ccopy_reg
_reconstructor
p0
(cnetworkx.classes.graph
Graph
p1
c__builtin__
object
p2
Ntp3
Rp4
(dp5
S'node'
p6
(dp7
I0
(dp8
sI1
(dp9
sI2
(dp10
sI3
(dp11
sI4
(dp12
sI5
(dp13
sI6
(dp14
sI7
(dp15
sI8
(dp16
sI9
(dp17
sI10
(dp18
sI11
(dp19
sI12
(dp20
sI13
(dp21
sI14
(dp22
sI15
(dp23
sI16
(dp24
sI17
(dp25
sI18
(dp26
sI19
(dp27
sI20
(dp28
sI21
(dp29
sI22
(dp30
sI23
(dp31
sI24
(dp32
sI25
(dp33
sI26
(dp34
sI27
(dp35
sI28
(dp36
sI29
(dp37
ssS'node_dict_factory'
p38
c__builtin__
dict
p39
sS'edge_attr_dict_factory'
p40
g39
sS'edge'
p41
(dp42
I0
(dp43
I8
(dp44
sI1
(dp45
ssI1
(dp46
I0
g45
sI2
(dp47
sI14
(dp48
ssI2
(dp49
I1
g47
sI3
(dp50
ssI3
(dp51
I2
g50
sI4
(dp52
ssI4
(dp53
I3
g52
sI12
(dp54
ssI5
(dp55
I19
(dp56
ssI6
(dp57
I17
(dp58
sI7
(dp59
ssI7
(dp60
I8
(dp61
sI27
(dp62
sI6
g59
ssI8
(dp63
I0
g44
sI7
g61
ssI9
(dp64
I10
(dp65
ssI10
(dp66
I9
g65
sI11
(dp67
ssI11
(dp68
I10
g67
sI12
(dp69
ssI12
(dp70
I11
g69
sI4
g54
sI13
(dp71
sI29
(dp72
ssI13
(dp73
I16
(dp74
sI12
g71
ssI14
(dp75
I1
g48
sI20
(dp76
ssI15
(dp77
I16
(dp78
ssI16
(dp79
I17
(dp80
sI13
g74
sI15
g78
ssI17
(dp81
I16
g80
sI6
g58
ssI18
(dp82
I19
(dp83
ssI19
(dp84
I18
g83
sI20
(dp85
sI5
g56
ssI20
(dp86
I19
g85
sI14
g76
ssI21
(dp87
I22
(dp88
ssI22
(dp89
I21
g88
sI23
(dp90
ssI23
(dp91
I24
(dp92
sI22
g90
ssI24
(dp93
I27
(dp94
sI23
g92
ssI25
(dp95
I26
(dp96
ssI26
(dp97
I25
g96
sI27
(dp98
ssI27
(dp99
I24
g94
sI26
g98
sI7
g62
ssI28
(dp100
I29
(dp101
ssI29
(dp102
I12
g72
sI28
g101
sssS'graph'
p103
(dp104
S'name'
p105
S'watts_strogatz_graph(30,3,0.2)'
p106
ssS'adjlist_dict_factory'
p107
g39
sS'adj'
p108
g42
sb.