(lp0
I0
aI0
aI66
aI384
aI1064
aI1939
aI2708
aI3377
aI3824
aI4042
aI4141
aI4164
aI4165
aI4117
aI4041
aI3984
aI3856
aI3746
aI3682
aI3576
aI3500
aI3435
aI3364
aI3337
aI3276
aI3221
aI3134
aI3139
aI3118
aI3092
aI3100
aI3090
aI3095
aI3070
aI3066
aI3105
aI3120
aI3110
aI3075
aI3068
aI3089
aI3085
aI3083
aI3085
aI3067
aI3097
aI3121
aI3111
aI3108
aI3115
aI3107
aI3104
aI3137
aI3101
aI3079
aI3054
aI3052
aI3065
aI3078
aI3037
aI3050
aI3085
aI3124
aI3129
aI3120
aI3127
aI3129
aI3166
aI3191
aI3218
aI3179
aI3100
aI3123
aI3107
aI3093
aI3090
aI3107
aI3136
aI3088
aI3085
aI3089
aI3073
aI3068
aI3043
aI3064
aI3115
aI3155
aI3188
aI3192
aI3171
aI3140
aI3126
aI3123
aI3098
aI3106
aI3130
aI3159
aI3186
aI3181
aI3195
aI3166
aI3122
aI3165
aI3164
aI3127
aI3129
aI3121
aI3097
aI3091
aI3090
aI3070
aI3080
aI3073
aI3037
aI3055
aI3058
aI3042
aI3036
aI2991
aI2971
aI2988
aI3039
aI3050
aI3100
aI3120
aI3095
aI3132
aI3120
aI3137
aI3139
aI3117
aI3097
aI3094
aI3117
aI3124
aI3164
aI3176
aI3174
aI3149
aI3134
aI3157
aI3129
aI3119
aI3115
aI3122
aI3122
aI3131
aI3106
aI3095
aI3103
aI3128
aI3103
aI3124
aI3115
aI3120
aI3100
aI3113
aI3118
aI3094
aI3083
aI3113
aI3109
aI3127
aI3127
aI3121
aI3112
aI3126
aI3135
aI3141
aI3173
aI3161
aI3132
aI3117
aI3104
aI3118
aI3110
aI3103
aI3126
aI3135
aI3161
aI3174
aI3177
aI3169
aI3159
aI3164
aI3115
aI3125
aI3117
aI3124
aI3151
aI3188
aI3135
aI3119
aI3106
aI3103
aI3108
aI3079
aI3094
aI3078
aI3082
aI3019
aI3018
aI3021
aI3062
aI3080
aI3105
aI3117
aI3141
aI3144
aI3147
aI3229
aI3200
aI3209
aI3170
aI3152
aI3121
aI3154
aI3148
aI3120
aI3078
aI3088
aI3129
aI3094
aI3065
aI3140
aI3173
aI3139
aI3162
aI3164
aI3111
aI3094
aI3071
aI3061
aI3134
aI3113
aI3082
aI3056
aI3038
aI3012
aI3030
aI3061
aI3080
aI3084
aI3068
aI3097
aI3131
aI3100
aI3114
aI3133
aI3075
aI3053
aI3056
aI3068
aI3122
aI3132
aI3154
aI3146
aI3123
aI3195
aI3177
aI3129
aI3132
aI3092
aI3106
aI3105
aI3109
aI3030
aI3014
aI3043
aI3064
aI3059
aI3060
aI3081
aI3083
aI3100
aI3131
aI3154
aI3151
aI3144
aI3176
aI3147
aI3134
aI3121
aI3107
aI3102
aI3124
aI3135
aI3133
aI3138
aI3075
aI3034
aI2992
aI2947
aI2981
aI3013
aI3030
aI3037
aI3084
aI3073
aI3112
aI3107
aI3117
aI3151
aI3179
aI3209
aI3246
aI3280
aI3259
aI3231
aI3207
aI3218
aI3205
aI3248
aI3193
aI3177
aI3155
aI3113
aI3102
aI3116
aI3085
aI3076
aI3073
aI3074
aI3069
aI3072
aI3097
aI3099
aI3087
aI3113
aI3093
aI3089
aI3104
aI3103
aI3115
aI3116
aI3109
aI3107
aI3067
aI3087
aI3119
aI3155
aI3168
aI3134
aI3155
aI3145
aI3149
aI3192
aI3182
aI3162
aI3145
aI3149
aI3088
aI3097
aI3076
aI3033
aI3029
aI2976
aI2948
aI2976
aI2997
aI2985
aI3012
aI3051
aI3039
aI3038
aI3074
aI3090
aI3117
aI3097
aI3100
aI3110
aI3125
aI3107
aI3076
aI3092
aI3064
aI3034
aI3063
aI3069
aI3078
aI3124
aI3130
aI3142
aI3135
aI3160
aI3206
aI3174
aI3152
aI3159
aI3148
aI3173
aI3161
aI3186
aI3133
aI3119
aI3070
aI3096
aI3083
aI3116
aI3084
aI3088
aI3085
aI3079
aI3067
aI3117
aI3147
aI3127
aI3126
aI3092
aI3092
aI3100
aI3125
aI3120
aI3101
aI3112
aI3118
aI3119
aI3126
aI3143
aI3151
aI3153
aI3181
aI3163
aI3166
aI3168
aI3143
aI3157
aI3177
aI3158
aI3131
aI3156
aI3155
aI3160
aI3134
aI3128
aI3119
aI3137
aI3132
aI3133
aI3157
aI3135
aI3129
aI3131
aI3128
aI3093
aI3118
aI3092
aI3105
aI3132
aI3099
aI3093
aI3085
aI3112
aI3117
aI3132
aI3150
aI3171
aI3215
aI3218
aI3210
aI3237
aI3207
aI3181
aI3152
aI3123
aI3083
aI3138
aI3166
aI3208
aI3239
aI3192
aI3208
aI3222
aI3218
aI3212
aI3230
aI3166
aI3135
aI3116
aI3111
aI3121
aI3165
aI3149
aI3087
aI3103
aI3074
aI3076
aI3116
aI3143
aI3148
aI3132
aI3179
aI3148
aI3148
aI3162
aI3168
aI3145
aI3103
aI3036
aI3026
aI3036
aI3012
aI3034
aI3071
aI3071
aI3072
aI3126
aI3112
aI3097
aI3086
aI3073
aI3111
aI3100
aI3075
aI3022
aI3052
aI3034
aI3023
aI3043
aI3049
aI3045
aI3037
aI3003
aI3010
aI3021
aI3018
aI3023
aI3052
aI3078
aI3073
aI3129
aI3109
aI3135
aI3123
aI3119
aI3119
aI3120
aI3133
aI3142
aI3151
aI3132
aI3133
aI3136
aI3155
aI3190
aI3167
aI3150
aI3147
aI3142
aI3116
aI3142
aI3147
aI3152
aI3124
aI3131
aI3117
aI3143
aI3129
aI3129
aI3146
aI3168
aI3130
aI3111
aI3101
aI3121
aI3082
aI3059
aI3047
aI3065
aI3141
aI3148
aI3154
aI3175
aI3186
aI3189
aI3168
aI3176
aI3179
aI3157
aI3142
aI3100
aI3094
aI3108
aI3088
aI3064
aI3059
aI3044
aI3019
aI3015
aI3033
aI3041
aI3053
aI3087
aI3068
aI3055
aI3056
aI2993
aI2992
aI3042
aI3051
aI3050
aI3043
aI3057
aI3103
aI3113
aI3123
aI3097
aI3095
aI3101
aI3096
aI3105
aI3092
aI3134
aI3116
aI3088
aI3020
aI2987
aI2984
aI2974
aI2974
aI3002
aI3015
aI3018
aI3011
aI3036
aI3008
aI3023
aI3029
aI3056
aI3096
aI3157
aI3137
aI3139
aI3133
aI3156
aI3158
aI3144
aI3152
aI3160
aI3194
aI3175
aI3171
aI3134
aI3090
aI3081
aI3077
aI3063
aI3066
aI3080
aI3082
aI3072
aI3112
aI3072
aI3129
aI3135
aI3147
aI3165
aI3183
aI3167
aI3173
aI3156
aI3203
aI3188
aI3203
aI3227
aI3179
aI3163
aI3150
aI3109
aI3122
aI3101
aI3075
aI3131
aI3104
aI3079
aI3096
aI3166
aI3200
aI3196
aI3190
aI3181
aI3182
aI3179
aI3192
aI3209
aI3208
aI3159
aI3105
aI3064
aI3071
aI3070
aI3009
aI3048
aI3082
aI3136
aI3175
aI3177
aI3166
aI3154
aI3154
aI3125
aI3067
aI3038
aI3019
aI3024
aI3046
aI3082
aI3079
aI3088
aI3062
aI3032
aI3019
aI3013
aI3063
aI3082
aI3075
aI3078
aI3079
aI3105
aI3094
aI3120
aI3104
aI3038
aI3034
aI3023
aI2998
aI3007
aI3023
aI3035
aI3011
aI3033
aI3034
aI3060
aI3068
aI3061
aI3091
aI3106
aI3131
aI3130
aI3109
aI3112
aI3123
aI3103
aI3083
aI3097
aI3105
aI3135
aI3160
aI3141
aI3171
aI3162
aI3145
aI3090
aI3097
aI3126
aI3141
aI3181
aI3201
aI3148
aI3088
aI3048
aI3030
aI3058
aI3059
aI3079
aI3089
aI3113
aI3135
aI3126
aI3121
aI3135
aI3126
aI3107
aI3099
aI3064
aI3082
aI3079
aI3084
aI3074
aI3097
aI3126
aI3139
aI3128
aI3126
aI3149
aI3151
aI3124
aI3102
aI3111
aI3132
aI3155
aI3147
aI3175
aI3181
aI3153
aI3149
aI3146
aI3158
aI3158
aI3129
aI3076
aI3092
aI3089
aI3100
aI3079
aI3099
aI3119
aI3103
aI3094
aI3106
aI3153
aI3107
aI3116
aI3152
aI3138
aI3160
aI3180
aI3169
aI3152
aI3127
aI3144
aI3120
aI3185
aI3140
aI3135
aI3157
aI3177
aI3153
aI3125
aI3099
aI3092
aI3063
aI2966
aI2964
aI2982
aI2988
aI2971
aI2991
aI3011
aI3030
aI3059
aI3071
aI3135
aI3149
aI3139
aI3134
aI3158
aI3181
aI3192
aI3191
aI3148
aI3160
aI3168
aI3174
aI3186
aI3214
aI3177
aI3168
aI3140
aI3118
aI3115
aI3139
aI3159
aI3118
aI3114
aI3111
aI3179
aI3153
aI3124
aI3097
aI3084
aI3090
aI3070
aI3036
aI3040
aI3069
aI3054
aI3060
aI3067
aI3091
aI3067
aI3110
aI3104
aI3079
aI3069
aI3040
aI3060
aI3101
aI3145
aI3129
aI3168
aI3149
aI3192
aI3234
aI3213
aI3226
aI3206
aI3213
aI3191
aI3179
aI3135
aI3126
aI3115
aI3106
aI3049
aI3052
aI3048
aI3026
aI3055
aI3075
aI3086
aI3110
aI3102
aI3112
aI3142
aI3116
aI3090
aI3097
aI3062
aI3079
aI3098
aI3089
aI3101
aI3102
aI3123
aI3118
aI3134
aI3089
aI3119
aI3092
aI3106
aI3097
aI3069
aI3061
aI3018
aI3053
aI3088
aI3099
aI3153
aI3144
aI3147
aI3208
aI3205
aI3202
aI3206
aI3194
aI3200
aI3145
aI3131
aI3113
aI3093
aI3100
aI3122
aI3095
aI3088
aI3111
aI3079
aI3054
aI3056
aI3068
aI3100
aI3117
aI3160
aI3148
aI3120
aI3125
aI3135
aI3111
aI3152
aI3139
aI3165
aI3138
aI3109
aI3072
aI3062
aI3047
aI3061
aI3055
aI3100
aI3139
aI3122
aI3126
aI3133
aI3128
aI3133
aI3119
aI3100
aI3077
aI3116
aI3134
aI3157
aI3138
aI3103
aI3136
aI3170
aI3169
aI3162
aI3151
aI3156
aI3128
aI3163
aI3167
aI3182
aI3226
aI3242
aI3196
aI3172
aI3162
aI3162
aI3132
aI3121
aI3103
aI3114
aI3092
aI3074
aI3069
aI3016
aI3045
aI3083
aI3099
aI3109
aI3096
aI3107
aI3118
aI3102
aI3105
aI3132
aI3117
aI3103
aI3077
aI3088
aI3088
aI3053
aI3058
aI3075
aI3130
aI3153
aI3150
aI3146
aI3130
aI3136
aI3141
aI3105
aI3134
aI3145
aI3138
aI3099
aI3115
aI3139
aI3173
aI3187
aI3155
aI3123
aI3141
aI3137
aI3119
aI3068
aI3104
aI3143
aI3161
aI3137
aI3181
aI3212
aI3206
aI3211
aI3165
aI3129
aI3168
aI3224
aI3208
aI3239
aI3225
aI3166
aI3149
aI3151
aI3130
aI3143
aI3120
aI3134
aI3145
aI3108
aI3124
aI3119
aI3094
aI3102
aI3086
aI3065
aI3128
aI3142
aI3177
aI3218
aI3178
aI3169
aI3141
aI3139
aI3099
aI3077
aI3088
aI3101
aI3083
aI3091
aI3110
aI3103
aI3146
aI3172
aI3147
aI3143
aI3176
aI3176
aI3195
aI3161
aI3116
aI3114
aI3143
aI3146
aI3173
aI3148
aI3131
aI3148
aI3115
aI3110
aI3126
aI3157
aI3166
aI3156
aI3165
aI3116
aI3146
aI3119
aI3108
aI3094
aI3072
aI3071
aI3083
aI3065
aI3067
aI3072
aI3082
aI3029
aI3056
aI3109
aI3156
aI3158
aI3178
aI3143
aI3163
aI3158
aI3165
aI3136
aI3104
aI3089
aI3101
aI3092
aI3098
aI3104
aI3068
aI3013
aI2997
aI3022
aI3025
aI3099
aI3090
aI3148
aI3168
aI3174
aI3176
aI3141
aI3109
aI3109
aI3097
aI3086
aI3095
aI3079
aI3077
aI3076
aI3090
aI3064
aI3082
aI3088
aI3092
aI3104
aI3129
aI3142
aI3125
aI3133
aI3125
aI3121
aI3115
aI3138
aI3197
aI3167
aI3137
aI3181
aI3173
aI3175
aI3137
aI3103
aI3167
aI3155
aI3122
aI3158
aI3123
aI3104
aI3069
aI3073
aI3105
aI3112
aI3094
aI3119
aI3126
aI3125
aI3106
aI3035
aI3048
aI3087
aI3120
aI3116
aI3101
aI3086
aI3090
aI3076
aI3109
aI3164
aI3214
aI3246
aI3217
aI3234
aI3215
aI3211
aI3216
aI3197
aI3168
aI3131
aI3134
aI3108
aI3133
aI3092
aI3107
aI3126
aI3125
aI3121
aI3096
aI3110
aI3092
aI3099
aI3099
aI3069
aI3044
aI3075
aI3106
aI3119
aI3122
aI3093
aI3076
aI3092
aI3131
aI3147
aI3149
aI3187
aI3193
aI3187
aI3159
aI3155
aI3160
aI3172
aI3140
aI3140
aI3154
aI3179
aI3155
aI3141
aI3146
aI3161
aI3136
aI3163
aI3154
aI3148
aI3131
aI3147
aI3147
aI3179
aI3134
aI3138
aI3173
aI3158
aI3138
aI3109
aI3106
aI3104
aI3106
aI3072
aI3063
aI3074
aI3103
aI3144
aI3165
aI3172
aI3208
aI3203
aI3157
aI3164
aI3161
aI3190
aI3206
aI3203
aI3164
aI3189
aI3137
aI3088
aI3138
aI3142
aI3145
aI3129
aI3156
aI3129
aI3150
aI3137
aI3103
aI3142
aI3184
aI3179
aI3211
aI3210
aI3222
aI3238
aI3238
aI3226
aI3192
aI3189
aI3169
aI3152
aI3150
aI3122
aI3103
aI3098
aI3102
aI3102
aI3109
aI3117
aI3063
aI3047
aI3038
aI3059
aI3041
aI3079
aI3104
aI3070
aI3061
aI3081
aI3074
aI3099
aI3083
aI3146
aI3141
aI3168
aI3174
aI3155
aI3118
aI3079
aI3080
aI3116
aI3087
aI3058
aI3089
aI3105
aI3106
aI3112
aI3133
aI3152
aI3133
aI3114
aI3123
aI3125
aI3151
aI3175
aI3181
aI3154
aI3138
aI3135
aI3123
aI3110
aI3138
aI3121
aI3130
aI3095
aI3105
aI3136
aI3126
aI3168
aI3220
aI3186
aI3153
aI3132
aI3097
aI3105
aI3120
aI3126
aI3130
aI3149
aI3119
aI3108
aI3121
aI3091
aI3099
aI3102
aI3102
aI3139
aI3152
aI3129
aI3111
aI3096
aI3130
aI3125
aI3143
aI3128
aI3131
aI3054
aI3063
aI3050
aI3069
aI3062
aI3054
aI3028
aI3088
aI3146
aI3108
aI3084
aI3086
aI3123
aI3152
aI3153
aI3159
aI3136
aI3129
aI3154
aI3140
aI3104
aI3108
aI3117
aI3107
aI3068
aI3037
aI3019
aI3039
aI3043
aI3025
aI3016
aI3004
aI2989
aI2999
aI3030
aI3031
aI3077
aI3091
aI3099
aI3068
aI3074
aI3072
aI3072
aI3104
aI3148
aI3151
aI3215
aI3192
aI3172
aI3157
aI3108
aI3063
aI3006
aI3041
aI3076
aI3121
aI3088
aI3085
aI3076
aI3063
aI3051
aI3083
aI3090
aI3091
aI3124
aI3187
aI3185
aI3177
aI3134
aI3158
aI3162
aI3172
aI3164
aI3139
aI3166
aI3105
aI3091
aI3109
aI3140
aI3132
aI3128
aI3119
aI3138
aI3156
aI3190
aI3126
aI3106
aI3096
aI3107
aI3085
aI3104
aI3110
aI3105
aI3109
aI3131
aI3112
aI3139
aI3132
aI3131
aI3155
aI3173
aI3183
aI3157
aI3116
aI3136
aI3080
aI3099
aI3105
aI3073
aI3065
aI3067
aI3096
aI3100
aI3102
aI3130
aI3067
aI3040
aI3042
aI3076
aI3077
aI3074
aI3057
aI2999
aI2979
aI2954
aI2979
aI2978
aI2998
aI3053
aI3059
aI3064
aI3018
aI3029
aI3058
aI3081
aI3078
aI3086
aI3065
aI3062
aI3094
aI3063
aI3028
aI3026
aI3062
aI3065
aI3092
aI3123
aI3127
aI3179
aI3150
aI3160
aI3161
aI3153
aI3111
aI3149
aI3153
aI3169
aI3119
aI3127
aI3100
aI3080
aI3114
aI3107
aI3096
aI3137
aI3158
aI3131
aI3073
aI3091
aI3101
aI3097
aI3093
aI3071
aI3085
aI3044
aI3077
aI3089
aI3114
aI3152
aI3128
aI3101
aI3070
aI3063
aI3053
aI3045
aI3077
aI3063
aI3033
aI3015
aI3063
aI3104
aI3113
aI3153
aI3166
aI3149
aI3137
aI3122
aI3139
aI3136
aI3143
aI3148
aI3179
aI3195
aI3191
aI3188
aI3165
aI3183
aI3177
aI3187
aI3175
aI3148
aI3146
aI3132
aI3178
aI3211
aI3157
aI3140
aI3111
aI3134
aI3165
aI3224
aI3217
aI3206
aI3182
aI3139
aI3075
aI3074
aI3041
aI3014
aI3021
aI3075
aI3101
aI3052
aI3038
aI3011
aI3009
aI3031
aI3025
aI3051
aI3076
aI3105
aI3103
aI3082
aI3073
aI3065
aI3105
aI3117
aI3098
aI3127
aI3143
aI3177
aI3198
aI3197
aI3197
aI3132
aI3079
aI3074
aI3105
aI3151
aI3126
aI3108
aI3112
aI3077
aI3077
aI3063
aI3083
aI3100
aI3085
aI3115
aI3118
aI3110
aI3101
aI3110
aI3119
aI3153
aI3176
aI3164
aI3182
aI3170
aI3106
aI3089
aI3101
aI3061
aI3037
aI3022
aI2980
aI2995
aI2986
aI3009
aI3033
aI3045
aI3085
aI3083
aI3116
aI3091
aI3133
aI3137
aI3186
aI3203
aI3179
aI3165
aI3112
aI3091
aI3093
aI3123
aI3077
aI3138
aI3137
aI3132
aI3121
aI3128
aI3122
aI3110
aI3124
aI3115
aI3095
aI3092
aI3113
aI3128
aI3110
aI3137
aI3176
aI3135
aI3088
aI3090
aI3085
aI3113
aI3082
aI3051
aI3034
aI3028
aI3022
aI3016
aI3042
aI3050
aI3056
aI3045
aI3029
aI3090
aI3108
aI3136
aI3154
aI3111
aI3093
aI3073
aI3073
aI3051
aI3091
aI3121
aI3113
aI3130
aI3136
aI3152
aI3195
aI3201
aI3189
aI3182
aI3157
aI3132
aI3105
aI3114
aI3109
aI3118
aI3146
aI3127
aI3145
aI3112
aI3121
aI3144
aI3076
aI3061
aI3046
aI3011
aI3017
aI3070
aI3067
aI3083
aI3063
aI3069
aI3106
aI3093
aI3078
aI3051
aI3041
aI3003
aI3006
aI3003
aI3045
aI3033
aI3057
aI3040
aI3025
aI3039
aI3062
aI3101
aI3089
aI3084
aI3060
aI3089
aI3049
aI3013
aI3037
aI3075
aI3083
aI3099
aI3109
aI3148
aI3160
aI3157
aI3184
aI3137
aI3171
aI3203
aI3186
aI3150
aI3156
aI3163
aI3149
aI3124
aI3121
aI3118
aI3099
aI3124
aI3106
aI3082
aI3085
aI3077
aI3075
aI3077
aI3110
aI3110
aI3106
aI3139
aI3119
aI3155
aI3186
aI3224
aI3248
aI3221
aI3188
aI3154
aI3133
aI3142
aI3098
aI3131
aI3192
aI3196
aI3187
aI3203
aI3226
aI3225
aI3154
aI3153
aI3115
aI3137
aI3156
aI3151
aI3158
aI3157
aI3136
aI3139
aI3109
aI3119
aI3081
aI3124
aI3125
aI3176
aI3186
aI3135
aI3113
aI3177
aI3192
aI3150
aI3175
aI3169
aI3164
aI3164
aI3136
aI3148
aI3156
aI3152
aI3137
aI3142
aI3143
aI3144
aI3127
aI3149
aI3125
aI3109
aI3141
aI3141
aI3155
aI3139
aI3123
aI3137
aI3108
aI3141
aI3124
aI3108
aI3103
aI3101
aI3117
aI3100
aI3143
aI3166
aI3169
aI3180
aI3166
aI3185
aI3188
aI3178
aI3169
aI3149
aI3152
aI3143
aI3161
aI3138
aI3078
aI3062
aI3058
aI3080
aI3068
aI3093
aI3103
aI3123
aI3148
aI3166
aI3175
aI3203
aI3224
aI3194
aI3173
aI3193
aI3147
aI3088
aI3112
aI3073
aI3082
aI3113
aI3107
aI3107
aI3099
aI3109
aI3107
aI3136
aI3180
aI3152
aI3165
aI3170
aI3159
aI3193
aI3158
aI3122
aI3109
aI3071
aI3070
aI3075
aI3066
aI3051
aI3090
aI3072
aI3084
aI3060
aI3051
aI3079
aI3120
aI3171
aI3185
aI3169
aI3193
aI3212
aI3163
aI3131
aI3183
aI3186
aI3197
aI3222
aI3204
aI3190
aI3158
aI3138
aI3112
aI3116
aI3080
aI3103
aI3114
aI3096
aI3085
aI3077
aI3028
aI3045
aI3053
aI3044
aI3032
aI3021
aI3069
aI3089
aI3087
aI3095
aI3109
aI3074
aI3054
aI3079
aI3087
aI3063
aI3111
aI3154
aI3161
aI3163
aI3144
aI3137
aI3121
aI3096
aI3093
aI3129
aI3116
aI3174
aI3176
aI3151
aI3126
aI3140
aI3121
aI3151
aI3141
aI3152
aI3144
aI3138
aI3130
aI3125
aI3133
aI3106
aI3110
aI3083
aI3068
aI3042
aI3071
aI3091
aI3114
aI3079
aI3099
aI3123
aI3138
aI3139
aI3169
aI3139
aI3175
aI3195
aI3141
aI3150
aI3111
aI3104
aI3138
aI3136
aI3134
aI3120
aI3135
aI3092
aI3107
aI3081
aI3099
aI3070
aI3087
aI3090
aI3088
aI3090
aI3073
aI3123
aI3184
aI3179
aI3159
aI3198
aI3214
aI3238
aI3226
aI3188
aI3144
aI3136
aI3119
aI3138
aI3164
aI3164
aI3167
aI3188
aI3170
aI3162
aI3172
aI3213
aI3238
aI3223
aI3203
aI3157
aI3137
aI3099
aI3079
aI3103
aI3082
aI3093
aI3104
aI3091
aI3074
aI3000
aI3024
aI3038
aI3030
aI3017
aI3036
aI3048
aI3084
aI3067
aI3125
aI3161
aI3140
aI3130
aI3122
aI3116
aI3070
aI3083
aI3097
aI3096
aI3075
aI3032
aI3063
aI3070
aI3110
aI3079
aI3059
aI3068
aI3093
aI3117
aI3048
aI3057
aI3075
aI3095
aI3059
aI3051
aI3046
aI3011
aI3019
aI3027
aI2997
aI2982
aI3026
aI3113
aI3103
aI3104
aI3057
aI3068
aI3049
aI3028
aI3038
aI3068
aI3111
aI3148
aI3189
aI3194
aI3218
aI3212
aI3187
aI3193
aI3158
aI3163
aI3145
aI3188
aI3173
aI3141
aI3105
aI3072
aI3076
aI3121
aI3137
aI3147
aI3142
aI3180
aI3144
aI3146
aI3112
aI3110
aI3099
aI3104
aI3084
aI3040
aI3055
aI3059
aI3102
aI3114
aI3087
aI3118
aI3140
aI3145
aI3163
aI3146
aI3186
aI3161
aI3151
aI3131
aI3074
aI3058
aI3047
aI3074
aI3032
aI3058
aI3101
aI3110
aI3132
aI3107
aI3117
aI3114
aI3131
aI3142
aI3171
aI3155
aI3135
aI3140
aI3119
aI3124
aI3126
aI3168
aI3142
aI3190
aI3214
aI3213
aI3177
aI3172
aI3196
aI3187
aI3183
aI3147
aI3109
aI3120
aI3108
aI3125
aI3119
aI3154
aI3117
aI3091
aI3078
aI3093
aI3136
aI3136
aI3140
aI3107
aI3108
aI3087
aI3069
aI3086
aI3098
aI3083
aI3073
aI3102
aI3097
aI3093
aI3138
aI3135
aI3150
aI3187
aI3203
aI3194
aI3197
aI3173
aI3142
aI3089
aI3039
aI3028
aI3005
aI3019
aI3054
aI3089
aI3102
aI3085
aI3076
aI3051
aI3068
aI3091
aI3066
aI3083
aI3108
aI3143
aI3157
aI3161
aI3175
aI3209
aI3210
aI3217
aI3220
aI3182
aI3145
aI3130
aI3108
aI3119
aI3102
aI3088
aI3133
aI3098
aI3035
aI3046
aI3067
aI3044
aI3011
aI3005
aI2992
aI3053
aI3035
aI3034
aI3035
aI3078
aI3129
aI3137
aI3154
aI3143
aI3147
aI3119
aI3158
aI3150
aI3139
aI3092
aI3140
aI3154
aI3145
aI3135
aI3159
aI3178
aI3152
aI3141
aI3157
aI3149
aI3137
aI3135
aI3139
aI3130
aI3107
aI3116
aI3133
aI3178
aI3186
aI3199
aI3224
aI3203
aI3216
aI3144
aI3071
aI3034
aI3065
aI3096
aI3101
aI3099
aI3062
aI3095
aI3071
aI3081
aI3061
aI3048
aI3074
aI3090
aI3098
aI3071
aI3068
aI3040
aI3071
aI3094
aI3093
aI3052
aI3089
aI3125
aI3093
aI3069
aI3023
aI3027
aI3037
aI2996
aI2972
aI2951
aI2951
aI2969
aI3006
aI3019
aI3072
aI3098
aI3064
aI3086
aI3076
aI3045
aI3031
aI3080
aI3107
aI3064
aI3059
aI3094
aI3133
aI3130
aI3100
aI3093
aI3084
aI3068
aI3087
aI3077
aI3077
aI3073
aI3066
aI3084
aI3082
aI3157
aI3177
aI3185
aI3149
aI3100
aI3156
aI3160
aI3116
aI3128
aI3120
aI3182
aI3233
aI3229
aI3199
aI3192
aI3173
aI3200
aI3216
aI3170
aI3149
aI3109
aI3131
aI3143
aI3164
aI3170
aI3194
aI3189
aI3184
aI3194
aI3188
aI3192
aI3183
aI3194
aI3238
aI3258
aI3209
aI3209
aI3212
aI3186
aI3170
aI3124
aI3085
aI3127
aI3123
aI3122
aI3078
aI3099
aI3120
aI3139
aI3152
aI3087
aI3094
aI3027
aI3036
aI3064
aI3101
aI3120
aI3095
aI3093
aI3084
aI3116
aI3139
aI3165
aI3153
aI3158
aI3165
aI3135
aI3160
aI3147
aI3144
aI3119
aI3117
aI3070
aI3076
aI3085
aI3122
aI3125
aI3154
aI3161
aI3152
aI3132
aI3127
aI3123
aI3108
aI3073
aI3112
aI3125
aI3113
aI3113
aI3149
aI3187
aI3159
aI3152
aI3162
aI3157
aI3178
aI3216
aI3237
aI3199
aI3201
aI3154
aI3150
aI3154
aI3146
aI3196
aI3218
aI3215
aI3180
aI3151
aI3139
aI3119
aI3112
aI3129
aI3160
aI3109
aI3083
aI3122
aI3129
aI3100
aI3085
aI3110
aI3117
aI3144
aI3201
aI3188
aI3159
aI3199
aI3185
aI3176
aI3167
aI3147
aI3139
aI3133
aI3139
aI3124
aI3132
aI3130
aI3095
aI3053
aI3050
aI3055
aI3030
aI3040
aI3052
aI3100
aI3104
aI3088
aI3085
aI3070
aI3073
aI3061
aI3038
aI3081
aI3078
aI3099
aI3089
aI3085
aI3081
aI3057
aI3038
aI3042
aI3029
aI3082
aI3097
aI3127
aI3157
aI3195
aI3133
aI3104
aI3084
aI3026
aI3069
aI3075
aI3040
aI2965
aI2995
aI3002
aI3016
aI3035
aI3039
aI3041
aI3059
aI3056
aI3074
aI3117
aI3077
aI3087
aI3081
aI3100
aI3082
aI3046
aI3039
aI3090
aI3117
aI3097
aI3115
aI3135
aI3118
aI3147
aI3156
aI3180
aI3152
aI3136
aI3134
aI3166
aI3154
aI3176
aI3153
aI3138
aI3093
aI3074
aI3095
aI3062
aI3065
aI3070
aI3045
aI3068
aI3062
aI3068
aI3069
aI3097
aI3130
aI3118
aI3122
aI3139
aI3156
aI3151
aI3188
aI3194
aI3200
aI3179
aI3155
aI3161
aI3172
aI3113
aI3120
aI3126
aI3103
aI3094
aI3108
aI3111
aI3080
aI3107
aI3114
aI3138
aI3137
aI3132
aI3097
aI3111
aI3118
aI3099
aI3077
aI3091
aI3077
aI3061
aI3055
aI3039
aI3095
aI3153
aI3193
aI3184
aI3165
aI3133
aI3146
aI3170
aI3168
aI3191
aI3198
aI3220
aI3221
aI3224
aI3218
aI3169
aI3149
aI3141
aI3114
aI3089
aI3094
aI3058
aI3058
aI3046
aI3008
aI3019
aI2962
aI3018
aI2997
aI3028
aI3051
aI3086
aI3082
aI3093
aI3079
aI3064
aI3094
aI3078
aI3072
aI3094
aI3059
aI3067
aI3054
aI3106
aI3083
aI3053
aI3035
aI3048
aI3058
aI3063
aI3085
aI3095
aI3097
aI3099
aI3107
aI3111
aI3136
aI3170
aI3201
aI3231
aI3186
aI3140
aI3118
aI3104
aI3100
aI3130
aI3158
aI3154
aI3151
aI3155
aI3134
aI3119
aI3081
aI3103
aI3073
aI3077
aI3083
aI3097
aI3061
aI3070
aI3056
aI3076
aI3061
aI3040
aI3103
aI3143
aI3118
aI3110
aI3123
aI3145
aI3149
aI3109
aI3073
aI3126
aI3117
aI3170
aI3136
aI3135
aI3162
aI3150
aI3130
aI3152
aI3146
aI3136
aI3121
aI3123
aI3123
aI3129
aI3160
aI3159
aI3202
aI3190
aI3195
aI3208
aI3161
aI3112
aI3085
aI3090
aI3105
aI3102
aI3124
aI3116
aI3068
aI3034
aI3049
aI3019
aI3035
aI3023
aI3024
aI3066
aI3036
aI3018
aI3038
aI3041
aI3075
aI3094
aI3056
aI3064
aI3085
aI3092
aI3109
aI3094
aI3077
aI3100
aI3123
aI3160
aI3210
aI3174
aI3130
aI3133
aI3144
aI3135
aI3106
aI3137
aI3125
aI3118
aI3103
aI3084
aI3103
aI3097
aI3114
aI3090
aI3098
aI3115
aI3066
aI3058
aI3097
aI3133
aI3160
aI3197
aI3179
aI3147
aI3115
aI3117
aI3146
aI3141
aI3153
aI3134
aI3136
aI3134
aI3126
aI3114
aI3097
aI3074
aI3101
aI3095
aI3089
aI3096
aI3109
aI3111
aI3111
aI3114
aI3134
aI3137
aI3129
aI3117
aI3141
aI3083
aI3075
aI3078
aI3061
aI3045
aI3085
aI3080
aI3061
aI3076
aI3137
aI3140
aI3126
aI3129
aI3131
aI3171
aI3203
aI3198
aI3180
aI3116
aI3137
aI3147
aI3137
aI3089
aI3114
aI3140
aI3134
aI3086
aI3078
aI3093
aI3105
aI3130
aI3185
aI3175
aI3187
aI3214
aI3215
aI3159
aI3129
aI3126
aI3115
aI3161
aI3147
aI3168
aI3143
aI3142
aI3149
aI3146
aI3140
aI3107
aI3111
aI3115
aI3113
aI3135
aI3148
aI3140
aI3107
aI3133
aI3164
aI3057
aI3017
aI3047
aI3063
aI3040
aI3065
aI3039
aI3053
aI3073
aI3100
aI3080
aI3040
aI3088
aI3097
aI3081
aI3063
aI3048
aI3063
aI3076
aI3077
aI3050
aI3086
aI3047
aI3052
aI3026
aI3032
aI3044
aI3071
aI3101
aI3102
aI3119
aI3153
aI3145
aI3128
aI3101
aI3134
aI3129
aI3100
aI3081
aI3080
aI3071
aI3084
aI3131
aI3105
aI3166
aI3166
aI3099
aI3094
aI3095
aI3158
aI3168
aI3123
aI3108
aI3084
aI3090
aI3108
aI3064
aI3084
aI3040
aI3045
aI3036
aI3100
aI3149
aI3176
aI3194
aI3175
aI3158
aI3184
aI3199
aI3188
aI3187
aI3203
aI3205
aI3183
aI3167
aI3120
aI3129
aI3096
aI3143
aI3113
aI3106
aI3130
aI3115
aI3146
aI3137
aI3118
aI3093
aI3085
aI3110
aI3107
aI3108
aI3118
aI3117
aI3128
aI3100
aI3095
aI3100
aI3093
aI3120
aI3097
aI3137
aI3187
aI3171
aI3179
aI3183
aI3194
aI3182
aI3176
aI3196
aI3184
aI3182
aI3152
aI3176
aI3198
aI3195
aI3228
aI3171
aI3222
aI3149
aI3096
aI3085
aI3103
aI3148
aI3140
aI3129
aI3130
aI3103
aI3136
aI3141
aI3139
aI3132
aI3153
aI3149
aI3188
aI3179
aI3216
aI3212
aI3206
aI3191
aI3142
aI3118
aI3125
aI3115
aI3143
aI3154
aI3126
aI3110
aI3134
aI3139
aI3141
aI3123
aI3140
aI3145
aI3153
aI3122
aI3127
aI3125
aI3120
aI3118
aI3100
aI3104
aI3159
aI3149
aI3145
aI3121
aI3107
aI3119
aI3140
aI3167
aI3133
aI3116
aI3143
aI3172
aI3177
aI3185
aI3142
aI3117
aI3102
aI3163
aI3171
aI3200
aI3145
aI3148
aI3137
aI3098
aI3072
aI3057
aI3084
aI3090
aI3113
aI3070
aI3060
aI3047
aI3101
aI3127
aI3168
aI3143
aI3132
aI3142
aI3178
aI3159
aI3125
aI3131
aI3134
aI3150
aI3160
aI3163
aI3140
aI3165
aI3184
aI3155
aI3153
aI3171
aI3172
aI3147
aI3170
aI3170
aI3158
aI3140
aI3172
aI3193
aI3239
aI3241
aI3216
aI3246
aI3232
aI3212
aI3214
aI3187
aI3151
aI3094
aI3100
aI3051
aI3061
aI3057
aI3096
aI3132
aI3138
aI3148
aI3143
aI3146
aI3158
aI3116
aI3135
aI3153
aI3169
aI3118
aI3128
aI3148
aI3128
aI3127
aI3101
aI3100
aI3105
aI3093
aI3102
aI3088
aI3128
aI3149
aI3169
aI3175
aI3195
aI3234
aI3231
aI3205
aI3212
aI3195
aI3161
aI3133
aI3172
aI3162
aI3179
aI3177
aI3193
aI3203
aI3136
aI3130
aI3149
aI3178
aI3173
aI3136
aI3132
aI3139
aI3182
aI3172
aI3138
aI3160
aI3148
aI3143
aI3141
aI3178
aI3191
aI3180
aI3152
aI3123
aI3125
aI3110
aI3094
aI3093
aI3108
aI3134
aI3127
aI3148
aI3145
aI3181
aI3120
aI3104
aI3066
aI3047
aI3069
aI3077
aI3084
aI3035
aI3053
aI3098
aI3102
aI3059
aI3091
aI3120
aI3134
aI3141
aI3122
aI3130
aI3131
aI3096
aI3078
aI3065
aI3082
aI3074
aI3077
aI3094
aI3123
aI3110
aI3117
aI3079
aI3108
aI3113
aI3112
aI3076
aI3086
aI3062
aI3060
aI3067
aI3068
aI3058
aI3084
aI3086
aI3119
aI3127
aI3146
aI3150
aI3193
aI3208
aI3214
aI3188
aI3192
aI3199
aI3197
aI3181
aI3186
aI3176
aI3160
aI3141
aI3095
aI3069
aI3118
aI3074
aI3048
aI3018
aI3069
aI3082
aI3074
aI3027
aI2992
aI3028
aI3030
aI3034
aI3068
aI3113
aI3103
aI3091
aI3104
aI3118
aI3138
aI3128
aI3150
aI3149
aI3173
aI3195
aI3198
aI3150
aI3174
aI3155
aI3149
aI3139
aI3173
aI3203
aI3213
aI3181
aI3196
aI3211
aI3187
aI3152
aI3103
aI3076
aI3078
aI3080
aI3083
aI3060
aI3027
aI3036
aI3065
aI3101
aI3170
aI3218
aI3198
aI3136
aI3116
aI3140
aI3156
aI3128
aI3132
aI3113
aI3119
aI3150
aI3156
aI3146
aI3149
aI3136
aI3139
aI3165
aI3196
aI3106
aI3063
aI3094
aI3095
aI3118
aI3080
aI3053
aI3060
aI3069
aI3067
aI3079
aI3093
aI3085
aI3137
aI3144
aI3132
aI3086
aI3095
aI3105
aI3090
aI3085
aI3084
aI3123
aI3102
aI3088
aI3081
aI3079
aI3076
aI3087
aI3119
aI3143
aI3138
aI3116
aI3112
aI3096
aI3062
aI3030
aI3017
aI3026
aI3045
aI3039
aI3025
aI3006
aI3019
aI3019
aI3068
aI3088
aI3040
aI3012
aI3044
aI3058
aI3065
aI3086
aI3118
aI3108
aI3145
aI3145
aI3139
aI3175
aI3161
aI3168
aI3148
aI3128
aI3140
aI3145
aI3138
aI3120
aI3107
aI3106
aI3109
aI3144
aI3133
aI3116
aI3138
aI3168
aI3181
aI3194
aI3208
aI3173
aI3151
aI3150
aI3121
aI3098
aI3132
aI3128
aI3158
aI3161
aI3168
aI3100
aI3098
aI3071
aI3063
aI3101
aI3136
aI3131
aI3141
aI3122
aI3124
aI3128
aI3102
aI3106
aI3112
aI3083
aI3103
aI3140
aI3169
aI3175
aI3154
aI3144
aI3150
aI3155
aI3167
aI3154
aI3151
aI3175
aI3170
aI3152
aI3183
aI3189
aI3212
aI3207
aI3167
aI3139
aI3122
aI3101
aI3084
aI3093
aI3108
aI3144
aI3183
aI3192
aI3180
aI3193
aI3216
aI3229
aI3257
aI3200
aI3168
aI3145
aI3114
aI3107
aI3085
aI3088
aI3086
aI3058
aI3026
aI3082
aI3089
aI3095
aI3052
aI3059
aI3104
aI3092
aI3080
aI3094
aI3100
aI3104
aI3115
aI3156
aI3122
aI3124
aI3138
aI3123
aI3141
aI3133
aI3145
aI3150
aI3122
aI3166
aI3191
aI3213
aI3199
aI3164
aI3164
aI3135
aI3136
aI3125
aI3133
aI3140
aI3102
aI3123
aI3120
aI3138
aI3158
aI3154
aI3127
aI3143
aI3105
aI3125
aI3138
aI3160
aI3153
aI3156
aI3216
aI3232
aI3199
aI3149
aI3135
aI3129
aI3104
aI3089
aI3030
aI3066
aI3084
aI3096
aI3094
aI3122
aI3148
aI3170
aI3181
aI3173
aI3159
aI3165
aI3138
aI3107
aI3118
aI3107
aI3091
aI3048
aI3087
aI3065
aI3050
aI3063
aI3097
aI3137
aI3167
aI3159
aI3184
aI3177
aI3182
aI3106
aI3076
aI3070
aI3077
aI3064
aI3065
aI3080
aI3096
aI3100
aI3091
aI3078
aI3076
aI3131
aI3161
aI3162
aI3192
aI3234
aI3213
aI3201
aI3189
aI3211
aI3192
aI3178
aI3142
aI3155
aI3130
aI3153
aI3165
aI3161
aI3159
aI3137
aI3168
aI3184
aI3160
aI3192
aI3200
aI3217
aI3212
aI3200
aI3193
aI3228
aI3201
aI3212
aI3191
aI3221
aI3226
aI3180
aI3161
aI3149
aI3162
aI3150
aI3137
aI3159
aI3160
aI3186
aI3180
aI3148
aI3153
aI3147
aI3141
aI3114
aI3106
aI3085
aI3096
aI3134
aI3144
aI3124
aI3103
aI3152
aI3154
aI3161
aI3160
aI3174
aI3159
aI3124
aI3096
aI3084
aI3081
aI3102
aI3127
aI3138
aI3149
aI3135
aI3122
aI3133
aI3139
aI3149
aI3116
aI3137
aI3155
aI3120
aI3122
aI3107
aI3140
aI3129
aI3134
aI3119
aI3113
aI3133
aI3133
aI3115
aI3149
aI3116
aI3143
aI3106
aI3089
aI3049
aI3081
aI3067
aI3095
aI3139
aI3123
aI3125
aI3127
aI3136
aI3150
aI3167
aI3175
aI3205
aI3212
aI3244
aI3229
aI3207
aI3188
aI3164
aI3134
aI3155
aI3158
aI3119
aI3104
aI3080
aI3073
aI3073
aI3120
aI3111
aI3077
aI3045
aI3040
aI3083
aI3066
aI3086
aI3076
aI3100
aI3119
aI3131
aI3108
aI3119
aI3083
aI3136
aI3160
aI3137
aI3154
aI3089
aI3041
aI3022
aI3008
aI2970
aI3023
aI3044
aI3060
aI3031
aI3051
aI3070
aI3109
aI3144
aI3122
aI3189
aI3168
aI3175
aI3143
aI3152
aI3145
aI3187
aI3248
aI3222
aI3187
aI3150
aI3130
aI3116
aI3124
aI3151
aI3169
aI3138
aI3097
aI3065
aI3046
aI3068
aI3090
aI3094
aI3088
aI3041
aI3046
aI3040
aI3038
aI3052
aI3109
aI3110
aI3136
aI3124
aI3115
aI3135
aI3136
aI3156
aI3163
aI3166
aI3156
aI3144
aI3158
aI3166
aI3127
aI3146
aI3138
aI3119
aI3097
aI3096
aI3103
aI3109
aI3087
aI3050
aI3085
aI3091
aI3114
aI3125
aI3130
aI3165
aI3178
aI3167
aI3170
aI3168
aI3136
aI3154
aI3123
aI3107
aI3103
aI3091
aI3049
aI3010
aI3020
aI3062
aI3055
aI3059
aI3127
aI3148
aI3148
aI3153
aI3155
aI3163
aI3202
aI3180
aI3181
aI3155
aI3137
aI3119
aI3109
aI3104
aI3090
aI3089
aI3110
aI3099
aI3115
aI3099
aI3051
aI3082
aI3091
aI3097
aI3101
aI3090
aI3052
aI3027
aI3072
aI3057
aI3047
aI3031
aI3032
aI3033
aI2992
aI3005
aI3020
aI3069
aI3137
aI3149
aI3152
aI3175
aI3184
aI3171
aI3197
aI3172
aI3139
aI3125
aI3094
aI3078
aI3071
aI3059
aI3059
aI3006
aI3019
aI3005
aI3021
aI3019
aI3057
aI3059
aI3086
aI3120
aI3122
aI3093
aI3080
aI3075
aI3096
aI3099
aI3103
aI3132
aI3171
aI3184
aI3183
aI3178
aI3150
aI3145
aI3128
aI3104
aI3122
aI3136
aI3193
aI3158
aI3143
aI3128
aI3086
aI3056
aI3094
aI3107
aI3137
aI3069
aI3087
aI3062
aI3080
aI3115
aI3094
aI3114
aI3173
aI3155
aI3156
aI3181
aI3196
aI3166
aI3177
aI3176
aI3172
aI3149
aI3170
aI3138
aI3140
aI3160
aI3181
aI3150
aI3111
aI3061
aI3047
aI3098
aI3106
aI3125
aI3080
aI3100
aI3091
aI3087
aI3109
aI3129
aI3156
aI3195
aI3207
aI3218
aI3201
aI3179
aI3193
aI3145
aI3119
aI3099
aI3089
aI3117
aI3115
aI3136
aI3140
aI3134
aI3115
aI3099
aI3058
aI3066
aI3090
aI3078
aI3068
aI3097
aI3105
aI3082
aI3073
aI3084
aI3097
aI3107
aI3140
aI3174
aI3178
aI3179
aI3160
aI3145
aI3141
aI3149
aI3178
aI3171
aI3185
aI3198
aI3196
aI3229
aI3207
a.