(lp0
I0
aI0
aI80
aI470
aI1143
aI1963
aI2800
aI3335
aI3648
aI3867
aI4037
aI4079
aI4058
aI4021
aI3970
aI3923
aI3856
aI3803
aI3714
aI3655
aI3571
aI3506
aI3473
aI3411
aI3360
aI3283
aI3223
aI3184
aI3170
aI3120
aI3082
aI3074
aI3089
aI3091
aI3108
aI3045
aI3059
aI3090
aI3098
aI3092
aI3099
aI3088
aI3083
aI3144
aI3153
aI3131
aI3102
aI3093
aI3116
aI3095
aI3114
aI3126
aI3141
aI3153
aI3137
aI3141
aI3102
aI3078
aI3054
aI3077
aI3077
aI3073
aI3047
aI3024
aI3024
aI3004
aI3001
aI3045
aI3073
aI3056
aI3055
aI3094
aI3112
aI3086
aI3079
aI3070
aI3096
aI3139
aI3151
aI3185
aI3150
aI3139
aI3133
aI3132
aI3093
aI3089
aI3100
aI3128
aI3101
aI3111
aI3160
aI3152
aI3192
aI3151
aI3091
aI3110
aI3106
aI3098
aI3086
aI3045
aI3021
aI3019
aI3049
aI3100
aI3123
aI3134
aI3079
aI3123
aI3099
aI3096
aI3104
aI3105
aI3112
aI3085
aI3067
aI3064
aI3081
aI3084
aI3112
aI3119
aI3083
aI3066
aI3134
aI3160
aI3140
aI3189
aI3192
aI3181
aI3143
aI3147
aI3177
aI3157
aI3136
aI3175
aI3169
aI3184
aI3161
aI3140
aI3102
aI3131
aI3101
aI3140
aI3157
aI3151
aI3144
aI3112
aI3079
aI3065
aI3131
aI3180
aI3130
aI3073
aI3057
aI3062
aI3101
aI3116
aI3118
aI3090
aI3090
aI3085
aI3070
aI3081
aI3079
aI3130
aI3154
aI3161
aI3147
aI3143
aI3145
aI3165
aI3142
aI3101
aI3093
aI3096
aI3115
aI3101
aI3091
aI3126
aI3111
aI3139
aI3111
aI3122
aI3091
aI3089
aI3118
aI3136
aI3122
aI3125
aI3153
aI3112
aI3099
aI3084
aI3088
aI3040
aI3058
aI3053
aI3053
aI3069
aI3093
aI3078
aI3005
aI2972
aI2954
aI2970
aI3033
aI3051
aI3050
aI3057
aI3091
aI3047
aI3067
aI3070
aI3086
aI3036
aI3047
aI3086
aI3117
aI3138
aI3098
aI3098
aI3127
aI3131
aI3179
aI3171
aI3183
aI3147
aI3134
aI3092
aI3099
aI3123
aI3123
aI3125
aI3159
aI3163
aI3141
aI3132
aI3168
aI3204
aI3197
aI3166
aI3188
aI3138
aI3113
aI3140
aI3119
aI3132
aI3126
aI3132
aI3120
aI3097
aI3130
aI3141
aI3087
aI3051
aI3052
aI3041
aI3005
aI3016
aI2982
aI3032
aI3082
aI3109
aI3107
aI3091
aI3071
aI3046
aI3036
aI3032
aI3079
aI3085
aI3125
aI3158
aI3132
aI3104
aI3093
aI3089
aI3093
aI3105
aI3092
aI3092
aI3098
aI3104
aI3102
aI3149
aI3169
aI3160
aI3165
aI3193
aI3192
aI3164
aI3132
aI3152
aI3129
aI3090
aI3074
aI3071
aI3061
aI3026
aI3073
aI3107
aI3170
aI3165
aI3193
aI3155
aI3181
aI3211
aI3228
aI3197
aI3207
aI3218
aI3170
aI3178
aI3170
aI3160
aI3160
aI3127
aI3078
aI3054
aI3078
aI3127
aI3124
aI3140
aI3186
aI3192
aI3209
aI3202
aI3194
aI3190
aI3171
aI3207
aI3208
aI3211
aI3186
aI3164
aI3164
aI3162
aI3177
aI3192
aI3158
aI3147
aI3161
aI3149
aI3160
aI3161
aI3166
aI3180
aI3154
aI3186
aI3197
aI3191
aI3165
aI3140
aI3116
aI3129
aI3133
aI3103
aI3118
aI3114
aI3091
aI3051
aI3076
aI3087
aI3098
aI3112
aI3096
aI3098
aI3109
aI3108
aI3092
aI3066
aI3041
aI3103
aI3137
aI3117
aI3120
aI3106
aI3082
aI3093
aI3066
aI3064
aI3095
aI3100
aI3059
aI3074
aI3113
aI3088
aI3117
aI3096
aI3105
aI3079
aI3057
aI3016
aI2999
aI3009
aI3048
aI3033
aI3023
aI3026
aI3090
aI3107
aI3115
aI3135
aI3142
aI3187
aI3188
aI3157
aI3159
aI3179
aI3191
aI3160
aI3102
aI3117
aI3130
aI3112
aI3125
aI3150
aI3143
aI3139
aI3117
aI3126
aI3129
aI3104
aI3070
aI3088
aI3093
aI3093
aI3102
aI3089
aI3080
aI3055
aI3076
aI3070
aI3093
aI3098
aI3095
aI3083
aI3081
aI3097
aI3077
aI3080
aI3111
aI3120
aI3093
aI3126
aI3123
aI3132
aI3186
aI3171
aI3145
aI3124
aI3118
aI3121
aI3120
aI3164
aI3163
aI3168
aI3109
aI3101
aI3064
aI3070
aI3083
aI3050
aI3029
aI3089
aI3109
aI3110
aI3116
aI3071
aI3057
aI3040
aI3041
aI2993
aI3002
aI3003
aI3005
aI3036
aI3072
aI3107
aI3131
aI3166
aI3174
aI3166
aI3144
aI3154
aI3178
aI3161
aI3184
aI3204
aI3183
aI3257
aI3269
aI3280
aI3221
aI3240
aI3228
aI3235
aI3234
aI3215
aI3194
aI3178
aI3173
aI3157
aI3105
aI3125
aI3056
aI2994
aI3007
aI2983
aI3007
aI3023
aI3044
aI3029
aI3003
aI3042
aI3067
aI3071
aI3101
aI3095
aI3095
aI3081
aI3074
aI3102
aI3104
aI3096
aI3145
aI3142
aI3129
aI3115
aI3123
aI3171
aI3176
aI3162
aI3116
aI3113
aI3099
aI3127
aI3159
aI3175
aI3180
aI3189
aI3172
aI3142
aI3153
aI3159
aI3154
aI3136
aI3144
aI3146
aI3136
aI3131
aI3104
aI3101
aI3105
aI3105
aI3168
aI3161
aI3125
aI3126
aI3118
aI3092
aI3119
aI3135
aI3128
aI3150
aI3158
aI3167
aI3174
aI3180
aI3168
aI3199
aI3167
aI3148
aI3136
aI3139
aI3147
aI3138
aI3118
aI3113
aI3130
aI3120
aI3091
aI3064
aI3077
aI3129
aI3147
aI3183
aI3199
aI3216
aI3184
aI3187
aI3155
aI3150
aI3178
aI3194
aI3210
aI3198
aI3216
aI3197
aI3222
aI3231
aI3245
aI3221
aI3170
aI3146
aI3118
aI3106
aI3114
aI3117
aI3116
aI3127
aI3119
aI3146
aI3112
aI3157
aI3125
aI3170
aI3194
aI3207
aI3172
aI3111
aI3100
aI3069
aI3102
aI3103
aI3085
aI3111
aI3108
aI3094
aI3129
aI3134
aI3131
aI3181
aI3231
aI3269
aI3233
aI3256
aI3241
aI3171
aI3145
aI3113
aI3140
aI3161
aI3211
aI3182
aI3154
aI3152
aI3115
aI3101
aI3118
aI3139
aI3161
aI3190
aI3193
aI3170
aI3170
aI3225
aI3229
aI3205
aI3167
aI3174
aI3169
aI3142
aI3132
aI3161
aI3165
aI3123
aI3138
aI3117
aI3082
aI3079
aI3050
aI3015
aI3016
aI3003
aI2992
aI3008
aI3036
aI3018
aI3048
aI3069
aI3070
aI3115
aI3100
aI3105
aI3110
aI3101
aI3086
aI3090
aI3092
aI3102
aI3105
aI3075
aI3101
aI3105
aI3113
aI3064
aI3013
aI2986
aI2975
aI2989
aI2995
aI3046
aI3056
aI3080
aI3046
aI3056
aI3084
aI3087
aI3098
aI3129
aI3081
aI3054
aI3091
aI3082
aI3094
aI3132
aI3175
aI3163
aI3138
aI3141
aI3135
aI3106
aI3132
aI3184
aI3203
aI3205
aI3258
aI3268
aI3247
aI3212
aI3164
aI3163
aI3166
aI3229
aI3238
aI3210
aI3211
aI3190
aI3165
aI3141
aI3141
aI3077
aI3110
aI3129
aI3140
aI3175
aI3207
aI3172
aI3132
aI3133
aI3175
aI3182
aI3162
aI3182
aI3148
aI3157
aI3136
aI3151
aI3158
aI3152
aI3159
aI3118
aI3110
aI3094
aI3112
aI3126
aI3121
aI3099
aI3105
aI3066
aI3103
aI3095
aI3089
aI3100
aI3133
aI3168
aI3152
aI3142
aI3170
aI3148
aI3171
aI3161
aI3137
aI3122
aI3146
aI3147
aI3172
aI3228
aI3229
aI3238
aI3174
aI3130
aI3111
aI3136
aI3111
aI3076
aI3075
aI3078
aI3066
aI3071
aI3090
aI3068
aI3086
aI3076
aI3087
aI3112
aI3096
aI3116
aI3123
aI3147
aI3117
aI3093
aI3062
aI3041
aI3059
aI3056
aI3042
aI3063
aI3110
aI3109
aI3124
aI3110
aI3096
aI3107
aI3120
aI3104
aI3132
aI3156
aI3123
aI3118
aI3125
aI3165
aI3163
aI3156
aI3133
aI3123
aI3143
aI3123
aI3093
aI3059
aI3081
aI3115
aI3090
aI3151
aI3157
aI3213
aI3235
aI3264
aI3267
aI3285
aI3260
aI3235
aI3225
aI3216
aI3212
aI3201
aI3153
aI3091
aI3085
aI3064
aI3080
aI3075
aI3072
aI3065
aI3097
aI3066
aI3057
aI3077
aI3090
aI3099
aI3089
aI3081
aI3062
aI3049
aI3109
aI3086
aI3101
aI3086
aI3101
aI3126
aI3159
aI3170
aI3167
aI3216
aI3214
aI3183
aI3153
aI3133
aI3153
aI3190
aI3127
aI3116
aI3072
aI3061
aI3044
aI3111
aI3115
aI3052
aI3073
aI3115
aI3097
aI3083
aI3102
aI3106
aI3133
aI3161
aI3164
aI3150
aI3115
aI3118
aI3144
aI3155
aI3134
aI3106
aI3104
aI3118
aI3142
aI3139
aI3163
aI3204
aI3230
aI3223
aI3217
aI3210
aI3204
aI3178
aI3188
aI3176
aI3132
aI3106
aI3056
aI3070
aI3114
aI3130
aI3185
aI3193
aI3216
aI3199
aI3187
aI3180
aI3183
aI3201
aI3161
aI3154
aI3150
aI3162
aI3197
aI3194
aI3174
aI3181
aI3174
aI3131
aI3105
aI3066
aI3075
aI3118
aI3096
aI3120
aI3074
aI3083
aI3084
aI3077
aI3079
aI3094
aI3123
aI3149
aI3126
aI3162
aI3177
aI3177
aI3144
aI3126
aI3134
aI3142
aI3117
aI3086
aI3073
aI3087
aI3108
aI3112
aI3130
aI3106
aI3111
aI3127
aI3079
aI3103
aI3074
aI3077
aI3120
aI3096
aI3110
aI3156
aI3178
aI3180
aI3164
aI3168
aI3147
aI3166
aI3164
aI3125
aI3130
aI3130
aI3125
aI3121
aI3148
aI3131
aI3106
aI3104
aI3099
aI3093
aI3074
aI3090
aI3097
aI3112
aI3122
aI3097
aI3080
aI3099
aI3080
aI3096
aI3118
aI3131
aI3097
aI3120
aI3108
aI3074
aI3097
aI3122
aI3149
aI3127
aI3135
aI3120
aI3136
aI3158
aI3156
aI3140
aI3128
aI3123
aI3126
aI3149
aI3160
aI3139
aI3073
aI3053
aI3000
aI3028
aI3024
aI3068
aI3065
aI3086
aI3115
aI3126
aI3140
aI3139
aI3094
aI3091
aI3088
aI3130
aI3146
aI3161
aI3196
aI3218
aI3210
aI3201
aI3159
aI3098
aI3076
aI3089
aI3081
aI3083
aI3101
aI3071
aI3059
aI3043
aI3036
aI3082
aI3094
aI3075
aI3056
aI3072
aI3062
aI3100
aI3122
aI3164
aI3198
aI3235
aI3213
aI3237
aI3169
aI3134
aI3117
aI3142
aI3133
aI3153
aI3171
aI3162
aI3133
aI3103
aI3129
aI3128
aI3088
aI3094
aI3084
aI3085
aI3066
aI3074
aI3053
aI3122
aI3192
aI3187
aI3190
aI3204
aI3225
aI3215
aI3190
aI3153
aI3132
aI3112
aI3076
aI3073
aI3107
aI3090
aI3097
aI3038
aI3055
aI3067
aI3097
aI3147
aI3153
aI3161
aI3143
aI3158
aI3156
aI3184
aI3128
aI3125
aI3136
aI3135
aI3133
aI3130
aI3121
aI3115
aI3122
aI3147
aI3146
aI3143
aI3133
aI3126
aI3105
aI3112
aI3091
aI3066
aI3095
aI3111
aI3154
aI3122
aI3139
aI3162
aI3150
aI3111
aI3107
aI3090
aI3122
aI3099
aI3079
aI3043
aI3044
aI2988
aI3010
aI3009
aI3022
aI3063
aI3056
aI3105
aI3096
aI3103
aI3088
aI3099
aI3109
aI3108
aI3091
aI3117
aI3098
aI3131
aI3152
aI3134
aI3139
aI3168
aI3190
aI3227
aI3233
aI3240
aI3211
aI3186
aI3168
aI3126
aI3089
aI3091
aI3081
aI3083
aI3134
aI3149
aI3170
aI3162
aI3173
aI3162
aI3119
aI3133
aI3148
aI3158
aI3175
aI3169
aI3187
aI3206
aI3197
aI3180
aI3180
aI3208
aI3174
aI3208
aI3205
aI3202
aI3181
aI3161
aI3164
aI3199
aI3202
aI3175
aI3169
aI3152
aI3107
aI3124
aI3121
aI3075
aI3047
aI3070
aI3083
aI3080
aI3051
aI3053
aI3083
aI3147
aI3149
aI3160
aI3180
aI3195
aI3190
aI3200
aI3188
aI3196
aI3162
aI3175
aI3176
aI3156
aI3166
aI3169
aI3153
aI3172
aI3166
aI3183
aI3214
aI3216
aI3152
aI3129
aI3105
aI3113
aI3113
aI3160
aI3174
aI3192
aI3231
aI3200
aI3221
aI3232
aI3255
aI3197
aI3192
aI3247
aI3262
aI3278
aI3249
aI3214
aI3205
aI3183
aI3169
aI3172
aI3158
aI3118
aI3123
aI3111
aI3101
aI3171
aI3189
aI3160
aI3133
aI3150
aI3126
aI3136
aI3106
aI3155
aI3153
aI3162
aI3148
aI3200
aI3146
aI3126
aI3112
aI3074
aI3058
aI3052
aI3064
aI3035
aI3017
aI2997
aI3004
aI3006
aI3000
aI3024
aI3025
aI3048
aI3076
aI3140
aI3171
aI3119
aI3144
aI3135
aI3104
aI3138
aI3108
aI3111
aI3118
aI3107
aI3100
aI3113
aI3124
aI3094
aI3059
aI3077
aI3094
aI3091
aI3133
aI3191
aI3184
aI3183
aI3195
aI3183
aI3150
aI3136
aI3095
aI3106
aI3093
aI3098
aI3098
aI3108
aI3069
aI3077
aI3111
aI3121
aI3094
aI3141
aI3104
aI3098
aI3082
aI3115
aI3075
aI3103
aI3079
aI3108
aI3065
aI3076
aI3106
aI3094
aI3081
aI3047
aI3050
aI3059
aI3084
aI3086
aI3062
aI3102
aI3144
aI3152
aI3152
aI3121
aI3079
aI3077
aI3070
aI3091
aI3065
aI3046
aI3019
aI3034
aI3041
aI3091
aI3118
aI3132
aI3166
aI3212
aI3213
aI3186
aI3175
aI3173
aI3224
aI3236
aI3179
aI3161
aI3180
aI3218
aI3210
aI3209
aI3229
aI3212
aI3174
aI3132
aI3143
aI3088
aI3086
aI3103
aI3093
aI3104
aI3117
aI3102
aI3132
aI3109
aI3137
aI3091
aI3102
aI3104
aI3063
aI3086
aI3080
aI3070
aI3105
aI3168
aI3194
aI3159
aI3144
aI3147
aI3135
aI3102
aI3115
aI3095
aI3085
aI3083
aI3078
aI3123
aI3129
aI3149
aI3134
aI3112
aI3134
aI3141
aI3136
aI3121
aI3138
aI3170
aI3151
aI3159
aI3198
aI3176
aI3167
aI3167
aI3141
aI3100
aI3101
aI3075
aI3067
aI3067
aI3046
aI3065
aI3103
aI3097
aI3136
aI3124
aI3147
aI3207
aI3283
aI3248
aI3235
aI3197
aI3201
aI3188
aI3160
aI3167
aI3196
aI3142
aI3139
aI3104
aI3072
aI3047
aI3069
aI3063
aI3036
aI3040
aI3035
aI3073
aI3076
aI3083
aI3085
aI3106
aI3104
aI3123
aI3146
aI3144
aI3166
aI3143
aI3127
aI3163
aI3185
aI3155
aI3146
aI3148
aI3164
aI3180
aI3147
aI3176
aI3205
aI3205
aI3191
aI3194
aI3204
aI3222
aI3201
aI3200
aI3192
aI3147
aI3103
aI3091
aI3120
aI3103
aI3096
aI3111
aI3056
aI3096
aI3108
aI3136
aI3164
aI3175
aI3180
aI3209
aI3194
aI3168
aI3165
aI3139
aI3103
aI3082
aI3068
aI3056
aI3027
aI2995
aI3017
aI3020
aI3082
aI3109
aI3100
aI3076
aI3101
aI3133
aI3121
aI3136
aI3126
aI3129
aI3150
aI3168
aI3140
aI3147
aI3163
aI3176
aI3180
aI3194
aI3130
aI3141
aI3164
aI3139
aI3128
aI3126
aI3150
aI3158
aI3142
aI3100
aI3101
aI3090
aI3114
aI3118
aI3151
aI3167
aI3205
aI3222
aI3219
aI3213
aI3205
aI3233
aI3250
aI3242
aI3241
aI3233
aI3158
aI3104
aI3116
aI3094
aI3070
aI3087
aI3078
aI3073
aI3106
aI3119
aI3130
aI3143
aI3107
aI3110
aI3126
aI3109
aI3124
aI3121
aI3135
aI3149
aI3137
aI3141
aI3170
aI3179
aI3152
aI3127
aI3150
aI3110
aI3111
aI3103
aI3088
aI3117
aI3161
aI3145
aI3164
aI3156
aI3184
aI3170
aI3149
aI3165
aI3141
aI3146
aI3136
aI3132
aI3126
aI3175
aI3172
aI3186
aI3190
aI3169
aI3170
aI3204
aI3177
aI3192
aI3136
aI3137
aI3113
aI3109
aI3144
aI3149
aI3132
aI3099
aI3067
aI3051
aI3085
aI3079
aI3129
aI3152
aI3144
aI3191
aI3212
aI3215
aI3209
aI3175
aI3172
aI3120
aI3144
aI3187
aI3155
aI3107
aI3067
aI3099
aI3081
aI3047
aI3071
aI3074
aI3097
aI3086
aI3090
aI3129
aI3119
aI3133
aI3146
aI3121
aI3090
aI3117
aI3131
aI3111
aI3086
aI3070
aI3051
aI3043
aI3068
aI3096
aI3079
aI3019
aI3055
aI3049
aI3087
aI3147
aI3135
aI3146
aI3152
aI3144
aI3150
aI3182
aI3183
aI3218
aI3224
aI3206
aI3196
aI3162
aI3188
aI3129
aI3163
aI3176
aI3156
aI3156
aI3178
aI3134
aI3133
aI3126
aI3158
aI3157
aI3155
aI3154
aI3151
aI3155
aI3154
aI3161
aI3171
aI3159
aI3116
aI3103
aI3137
aI3136
aI3153
aI3149
aI3139
aI3105
aI3081
aI3131
aI3121
aI3137
aI3090
aI3082
aI3058
aI3106
aI3143
aI3132
aI3101
aI3123
aI3103
aI3147
aI3143
aI3151
aI3136
aI3105
aI3082
aI3080
aI3054
aI3031
aI3061
aI3101
aI3117
aI3113
aI3122
aI3106
aI3120
aI3090
aI3042
aI3087
aI3076
aI3050
aI3078
aI3104
aI3085
aI3104
aI3125
aI3136
aI3212
aI3194
aI3209
aI3181
aI3220
aI3235
aI3171
aI3152
aI3128
aI3107
aI3133
aI3148
aI3122
aI3156
aI3146
aI3166
aI3181
aI3174
aI3131
aI3086
aI3103
aI3090
aI3105
aI3122
aI3131
aI3152
aI3185
aI3155
aI3105
aI3073
aI3087
aI3049
aI3040
aI3058
aI3095
aI3117
aI3132
aI3110
aI3122
aI3116
aI3157
aI3172
aI3152
aI3100
aI3104
aI3087
aI3084
aI3084
aI3143
aI3185
aI3186
aI3194
aI3194
aI3217
aI3196
aI3211
aI3178
aI3136
aI3122
aI3119
aI3077
aI3048
aI3038
aI3008
aI3045
aI3032
aI3030
aI3040
aI3083
aI3090
aI3104
aI3112
aI3108
aI3111
aI3107
aI3104
aI3068
aI3049
aI3106
aI3110
aI3097
aI3090
aI3089
aI3114
aI3126
aI3139
aI3196
aI3196
aI3151
aI3124
aI3127
aI3129
aI3123
aI3128
aI3154
aI3135
aI3118
aI3117
aI3128
aI3113
aI3079
aI3063
aI3054
aI3024
aI3013
aI3028
aI3015
aI2997
aI2994
aI3035
aI3028
aI3017
aI3018
aI2986
aI2960
aI2964
aI2978
aI3035
aI3060
aI3073
aI3096
aI3104
aI3109
aI3077
aI3058
aI3028
aI2999
aI3035
aI3024
aI3016
aI3042
aI3050
aI3032
aI3012
aI3013
aI2985
aI3007
aI3018
aI3071
aI3070
aI3121
aI3149
aI3175
aI3188
aI3222
aI3236
aI3190
aI3204
aI3187
aI3163
aI3176
aI3143
aI3146
aI3148
aI3138
aI3110
aI3072
aI3083
aI3043
aI3045
aI3086
aI3114
aI3136
aI3125
aI3108
aI3128
aI3145
aI3164
aI3142
aI3164
aI3154
aI3115
aI3070
aI3058
aI3086
aI3110
aI3150
aI3129
aI3127
aI3179
aI3195
aI3234
aI3261
aI3233
aI3216
aI3165
aI3145
aI3176
aI3182
aI3188
aI3191
aI3140
aI3129
aI3115
aI3158
aI3107
aI3066
aI3070
aI3058
aI3097
aI3075
aI3072
aI3104
aI3076
aI3049
aI3072
aI3093
aI3130
aI3158
aI3138
aI3112
aI3162
aI3132
aI3149
aI3135
aI3145
aI3103
aI3087
aI3090
aI3064
aI3057
aI3086
aI3066
aI3077
aI3083
aI3130
aI3099
aI3072
aI3071
aI3076
aI3098
aI3082
aI3117
aI3104
aI3102
aI3117
aI3112
aI3102
aI3129
aI3103
aI3131
aI3164
aI3121
aI3073
aI3070
aI3069
aI3057
aI3071
aI3106
aI3106
aI3093
aI3031
aI3030
aI3036
aI3064
aI3078
aI3088
aI3120
aI3120
aI3129
aI3119
aI3122
aI3115
aI3076
aI3070
aI3110
aI3175
aI3208
aI3191
aI3186
aI3215
aI3200
aI3143
aI3127
aI3090
aI3073
aI3082
aI3066
aI3054
aI3085
aI3114
aI3127
aI3146
aI3167
aI3156
aI3165
aI3131
aI3193
aI3178
aI3208
aI3162
aI3200
aI3159
aI3153
aI3177
aI3154
aI3091
aI3071
aI3044
aI3034
aI3023
aI3047
aI3056
aI3069
aI3088
aI3081
aI3071
aI3031
aI3040
aI3021
aI3032
aI3075
aI3121
aI3173
aI3202
aI3237
aI3226
aI3243
aI3223
aI3213
aI3146
aI3129
aI3102
aI3102
aI3079
aI3072
aI3087
aI3024
aI3038
aI3056
aI3081
aI3079
aI3072
aI3084
aI3095
aI3086
aI3105
aI3099
aI3116
aI3147
aI3138
aI3101
aI3150
aI3135
aI3131
aI3088
aI3091
aI3116
aI3098
aI3105
aI3057
aI3080
aI3103
aI3104
aI3103
aI3061
aI3041
aI3071
aI3073
aI3103
aI3114
aI3054
aI3044
aI3069
aI3035
aI2994
aI3017
aI3037
aI3104
aI3131
aI3128
aI3129
aI3164
aI3186
aI3213
aI3186
aI3170
aI3156
aI3127
aI3072
aI3129
aI3103
aI3103
aI3135
aI3133
aI3153
aI3136
aI3094
aI3114
aI3148
aI3171
aI3178
aI3189
aI3139
aI3155
aI3124
aI3141
aI3159
aI3160
aI3195
aI3203
aI3180
aI3184
aI3205
aI3206
aI3198
aI3202
aI3191
aI3174
aI3141
aI3103
aI3124
aI3165
aI3143
aI3148
aI3152
aI3110
aI3077
aI3066
aI3088
aI3133
aI3126
aI3146
aI3182
aI3180
aI3173
aI3151
aI3180
aI3173
aI3128
aI3110
aI3115
aI3133
aI3117
aI3094
aI3134
aI3131
aI3164
aI3185
aI3149
aI3092
aI3063
aI3086
aI3036
aI3020
aI3011
aI3040
aI3053
aI3069
aI3059
aI3072
aI3079
aI3037
aI3097
aI3105
aI3094
aI3086
aI3086
aI3069
aI3081
aI3151
aI3132
aI3131
aI3104
aI3107
aI3100
aI3094
aI3062
aI3023
aI3032
aI3070
aI3091
aI3103
aI3141
aI3193
aI3220
aI3227
aI3212
aI3206
aI3166
aI3141
aI3149
aI3135
aI3123
aI3102
aI3170
aI3133
aI3097
aI3068
aI3034
aI3016
aI3040
aI3066
aI3083
aI3071
aI3094
aI3159
aI3207
aI3229
aI3224
aI3220
aI3206
aI3230
aI3223
aI3216
aI3243
aI3260
aI3230
aI3188
aI3152
aI3147
aI3146
aI3121
aI3101
aI3103
aI3142
aI3122
aI3125
aI3125
aI3091
aI3113
aI3122
aI3082
aI3083
aI3111
aI3108
aI3133
aI3118
aI3127
aI3137
aI3164
aI3146
aI3142
aI3170
aI3151
aI3189
aI3117
aI3131
aI3103
aI3109
aI3103
aI3117
aI3125
aI3140
aI3165
aI3149
aI3135
aI3129
aI3102
aI3151
aI3158
aI3165
aI3126
aI3135
aI3150
aI3166
aI3196
aI3227
aI3222
aI3224
aI3247
aI3231
aI3179
aI3152
aI3147
aI3170
aI3176
aI3149
aI3139
aI3144
aI3144
aI3166
aI3116
aI3118
aI3112
aI3147
aI3165
aI3129
aI3137
aI3132
aI3119
aI3106
aI3095
aI3132
aI3154
aI3143
aI3167
aI3146
aI3171
aI3186
aI3176
aI3235
aI3254
aI3274
aI3257
aI3196
aI3205
aI3207
aI3214
aI3227
aI3183
aI3169
aI3179
aI3175
aI3140
aI3135
aI3122
aI3108
aI3044
aI3061
aI3074
aI3119
aI3145
aI3158
aI3201
aI3186
aI3195
aI3199
aI3178
aI3187
aI3169
aI3128
aI3107
aI3103
aI3139
aI3119
aI3098
aI3129
aI3111
aI3080
aI3085
aI3104
aI3119
aI3152
aI3143
aI3114
aI3140
aI3107
aI3162
aI3179
aI3152
aI3154
aI3169
aI3200
aI3152
aI3124
aI3098
aI3122
aI3122
aI3111
aI3102
aI3139
aI3167
aI3157
aI3140
aI3144
aI3137
aI3151
aI3153
aI3187
aI3216
aI3197
aI3190
aI3189
aI3149
aI3128
aI3088
aI3106
aI3098
aI3146
aI3125
aI3174
aI3208
aI3196
aI3206
aI3196
aI3180
aI3160
aI3176
aI3198
aI3194
aI3171
aI3195
aI3209
aI3156
aI3143
aI3131
aI3115
aI3111
aI3080
aI3097
aI3141
aI3177
aI3188
aI3207
aI3224
aI3241
aI3247
aI3226
aI3197
aI3199
aI3177
aI3171
aI3184
aI3162
aI3134
aI3128
aI3120
aI3092
aI3069
aI3076
aI3067
aI3058
aI3049
aI3075
aI3096
aI3133
aI3147
aI3113
aI3122
aI3108
aI3111
aI3142
aI3152
aI3171
aI3178
aI3193
aI3191
aI3207
aI3258
aI3264
aI3290
aI3294
aI3261
aI3234
aI3194
aI3185
aI3174
aI3182
aI3153
aI3178
aI3165
aI3145
aI3139
aI3116
aI3117
aI3107
aI3101
aI3057
aI3042
aI3051
aI3092
aI3078
aI3119
aI3118
aI3073
aI3067
aI3082
aI3122
aI3110
aI3111
aI3117
aI3098
aI3095
aI3098
aI3119
aI3110
aI3091
aI3044
aI3045
aI3031
aI3017
aI2988
aI2998
aI3037
aI3058
aI3041
aI3013
aI2986
aI2992
aI2971
aI2946
aI2968
aI3015
aI3088
aI3126
aI3138
aI3128
aI3130
aI3141
aI3142
aI3146
aI3159
aI3173
aI3144
aI3140
aI3078
aI3076
aI3080
aI3062
aI3091
aI3072
aI3088
aI3084
aI3066
aI3067
aI3044
aI3015
aI3080
aI3060
aI3054
aI3078
aI3129
aI3118
aI3074
aI3063
aI3107
aI3171
aI3167
aI3218
aI3163
aI3144
aI3148
aI3174
aI3154
aI3132
aI3117
aI3097
aI3106
aI3090
aI3103
aI3091
aI3100
aI3118
aI3158
aI3181
aI3120
aI3096
aI3090
aI3066
aI3086
aI3108
aI3084
aI3114
aI3121
aI3111
aI3107
aI3141
aI3162
aI3182
aI3210
aI3211
aI3187
aI3169
aI3160
aI3161
aI3158
aI3137
aI3108
aI3095
aI3036
aI3040
aI3046
aI3049
aI3065
aI3040
aI3065
aI3106
aI3074
aI3089
aI3134
aI3153
aI3142
aI3133
aI3126
aI3143
aI3078
aI3073
aI3108
aI3066
aI3100
aI3138
aI3152
aI3171
aI3166
aI3142
aI3161
aI3171
aI3178
aI3139
aI3098
aI3151
aI3181
aI3201
aI3199
aI3193
aI3171
aI3140
aI3141
aI3150
aI3153
aI3135
aI3099
aI3052
aI3072
aI3062
aI3068
aI3093
aI3068
aI3094
aI3098
aI3086
aI3105
aI3116
aI3133
aI3165
aI3167
aI3203
aI3173
aI3171
aI3118
aI3108
aI3142
aI3151
aI3168
aI3152
aI3136
aI3114
aI3091
aI3095
aI3037
aI3032
aI3036
aI3007
aI2990
aI3007
aI3048
aI3002
aI3047
aI3082
aI3118
aI3087
aI3102
aI3152
aI3184
aI3180
aI3163
aI3128
aI3144
aI3138
aI3141
aI3166
aI3174
aI3159
aI3161
aI3166
aI3140
aI3157
aI3097
aI3091
aI3089
aI3107
aI3129
aI3121
aI3105
aI3147
aI3149
aI3133
aI3099
aI3024
aI3011
aI2989
aI3030
aI3061
aI3085
aI3084
aI3117
aI3128
aI3169
aI3195
aI3220
aI3226
aI3246
aI3237
aI3175
aI3177
aI3162
aI3157
aI3142
aI3083
aI3050
aI3037
aI3045
aI3006
aI2976
aI2979
aI2995
aI2984
aI3002
aI2999
aI3025
aI3042
aI3055
aI3052
aI3000
aI3070
aI3101
aI3093
aI3112
aI3114
aI3103
aI3095
aI3112
aI3115
aI3133
aI3166
aI3149
aI3127
aI3146
aI3112
aI3133
aI3123
aI3141
aI3134
aI3124
aI3109
aI3086
aI3132
aI3134
aI3132
aI3136
aI3109
aI3114
aI3098
aI3054
aI3071
aI3149
aI3146
aI3153
aI3195
aI3190
aI3174
aI3194
aI3202
aI3183
aI3157
aI3124
aI3154
aI3112
aI3099
aI3096
aI3095
aI3077
aI3054
aI3062
aI3049
aI3062
aI3058
aI3055
aI3024
aI3035
aI3042
aI3018
aI3040
aI3119
aI3117
aI3119
aI3131
aI3149
aI3159
aI3165
aI3135
aI3126
aI3144
aI3104
aI3136
aI3164
aI3159
aI3140
aI3132
aI3110
aI3117
aI3163
aI3137
aI3114
aI3133
aI3140
aI3137
aI3154
aI3156
aI3164
aI3197
aI3235
aI3220
aI3151
aI3141
aI3142
aI3119
aI3083
aI3092
aI3089
aI3096
aI3094
aI3060
aI3052
aI3085
aI3110
aI3083
aI3136
aI3165
aI3137
aI3145
aI3158
aI3153
aI3173
aI3175
aI3170
aI3197
aI3136
aI3117
aI3073
aI3040
aI3078
aI3072
aI3060
aI3048
aI3068
aI3081
aI3073
aI3090
aI3104
aI3099
aI3109
aI3054
aI3071
aI3131
aI3146
aI3159
aI3206
aI3204
aI3141
aI3116
aI3135
aI3141
aI3124
aI3136
aI3128
aI3119
aI3088
aI3083
aI3020
aI3013
aI3015
aI3029
aI3040
aI3037
aI3033
aI3034
aI3015
aI3040
aI3059
aI3104
aI3113
aI3090
aI3083
aI3120
aI3112
aI3168
aI3178
aI3168
aI3184
aI3227
aI3217
aI3178
aI3158
aI3126
aI3119
aI3134
aI3145
aI3185
aI3136
aI3112
aI3113
aI3103
aI3078
aI3091
aI3069
aI3072
aI3078
aI3029
aI3025
aI3049
aI3016
aI3030
aI3048
aI3021
aI3054
aI3102
aI3091
aI3111
aI3134
aI3133
aI3100
aI3083
aI3136
aI3127
aI3117
aI3066
aI3049
aI3046
aI3077
aI3035
aI3045
aI3041
aI3052
aI3043
aI3062
aI3081
aI3077
aI3123
aI3095
aI3122
aI3123
aI3148
aI3125
aI3092
aI3088
aI3087
aI3089
aI3074
aI3097
aI3158
aI3148
aI3138
aI3147
aI3129
aI3173
aI3185
aI3217
aI3200
aI3191
aI3161
aI3143
aI3135
aI3134
aI3110
aI3107
aI3132
aI3118
aI3124
aI3163
aI3161
aI3159
aI3150
aI3143
aI3130
aI3118
aI3077
aI3074
aI3050
aI3032
aI2997
aI3024
aI3004
aI3013
aI3007
aI3020
aI3060
aI3106
aI3114
aI3095
aI3104
aI3079
aI3106
aI3147
aI3167
aI3180
aI3155
aI3127
aI3137
aI3138
aI3169
aI3180
aI3148
aI3136
aI3143
aI3152
aI3148
aI3158
aI3131
aI3179
aI3190
aI3188
aI3175
aI3206
aI3179
aI3151
aI3118
aI3133
aI3181
aI3192
aI3201
aI3158
aI3158
aI3205
aI3152
aI3157
aI3130
aI3135
aI3121
aI3139
aI3119
aI3141
aI3126
aI3119
aI3099
aI3109
aI3106
aI3150
aI3148
aI3204
aI3207
aI3229
aI3221
aI3207
aI3154
aI3109
aI3082
aI3052
aI3030
aI3028
aI3054
aI3069
aI3115
aI3130
aI3128
aI3104
aI3096
aI3095
aI3127
aI3144
aI3135
aI3132
aI3116
aI3169
aI3201
aI3178
aI3202
aI3201
aI3189
aI3176
aI3160
aI3172
aI3177
aI3172
aI3188
aI3174
aI3124
aI3098
aI3069
aI3048
aI3060
aI3054
aI3047
aI3029
aI3012
aI3033
aI3016
aI3005
aI2998
aI3060
aI3109
aI3088
aI3121
aI3094
aI3111
aI3111
aI3108
aI3062
aI3095
aI3115
aI3125
aI3102
aI3048
aI3061
aI3063
aI3042
aI3027
aI3048
aI3048
aI3003
aI2978
aI2988
aI3010
aI3005
aI3023
aI3007
aI3011
aI3002
aI3019
aI3027
aI3057
aI3078
aI3042
aI3093
aI3120
aI3162
aI3187
aI3187
aI3187
aI3178
aI3155
aI3138
aI3148
aI3114
aI3150
aI3161
aI3136
aI3144
aI3159
aI3135
aI3138
aI3084
aI3042
aI3077
aI3091
aI3082
aI3067
aI3072
aI3106
aI3111
aI3121
aI3105
aI3093
aI3103
aI3130
aI3153
aI3176
aI3163
aI3142
aI3140
aI3144
aI3117
aI3085
aI3074
aI3121
aI3120
aI3124
aI3143
aI3147
aI3165
aI3121
aI3114
aI3081
aI3054
aI3066
aI3084
aI3090
aI3100
aI3142
aI3144
aI3175
aI3167
aI3183
aI3144
aI3181
aI3175
aI3164
aI3134
aI3178
aI3156
aI3161
aI3136
aI3152
aI3119
aI3108
aI3113
aI3081
aI3125
aI3108
aI3095
aI3138
aI3144
aI3110
aI3148
aI3203
aI3217
aI3238
aI3221
aI3213
aI3180
aI3173
aI3195
aI3173
aI3113
aI3109
aI3117
aI3123
aI3156
aI3158
aI3187
aI3185
aI3200
aI3199
aI3257
aI3275
aI3293
aI3277
aI3260
aI3240
aI3218
aI3195
aI3190
aI3182
aI3172
aI3134
aI3122
aI3108
aI3113
aI3119
aI3092
aI3125
aI3094
aI3053
aI3058
aI3063
aI3094
aI3159
aI3188
aI3201
aI3205
aI3183
aI3149
aI3131
aI3112
aI3116
aI3098
aI3084
aI3058
aI3061
aI3092
aI3106
aI3148
aI3138
aI3115
aI3113
aI3100
aI3094
aI3114
aI3123
aI3109
aI3112
aI3114
aI3084
aI3072
aI3028
aI3062
aI3070
aI3086
aI3104
aI3127
aI3126
aI3147
aI3137
aI3116
aI3090
aI3039
aI3041
aI3055
aI3081
aI3099
aI3069
aI3080
aI3090
aI3088
aI3077
aI3120
aI3158
aI3204
aI3213
aI3224
aI3188
aI3214
aI3203
aI3230
aI3196
aI3157
aI3142
aI3144
aI3135
aI3088
aI3104
aI3079
aI3065
aI3051
aI3041
aI3090
aI3094
aI3092
aI3119
aI3137
aI3126
aI3132
aI3094
aI3028
aI3043
aI3092
aI3099
aI3123
aI3136
aI3165
aI3128
aI3133
aI3112
aI3087
aI3118
aI3093
aI3051
aI3016
aI2989
aI2984
aI2989
aI3001
aI3069
aI3024
aI3028
aI3012
aI2974
aI2976
aI2952
aI2967
aI2986
aI3034
aI3053
aI3108
aI3157
aI3153
aI3161
aI3147
aI3130
aI3103
aI3070
aI3053
aI3031
aI3057
aI3029
aI3056
aI3079
aI3095
aI3093
aI3083
aI3098
aI3113
aI3130
aI3127
aI3117
aI3100
aI3074
aI3052
aI3059
aI3064
aI3033
aI3044
aI3064
aI3043
aI3041
aI3077
aI3098
aI3096
aI3102
aI3086
aI3082
aI3080
aI3067
aI3089
aI3105
aI3116
aI3116
aI3091
aI3099
aI3102
aI3115
aI3132
aI3181
aI3168
aI3178
aI3158
aI3130
aI3146
aI3174
aI3146
aI3172
aI3089
aI3063
aI3074
aI3077
aI3107
aI3131
aI3114
aI3138
aI3120
aI3132
aI3109
aI3154
aI3131
aI3158
aI3169
aI3152
aI3147
aI3122
aI3155
aI3160
aI3188
aI3141
aI3161
aI3100
aI3097
aI3120
aI3143
aI3119
aI3108
aI3089
aI3052
aI3071
aI3066
aI3104
aI3136
aI3105
aI3102
aI3089
aI3081
aI3068
aI3081
aI3072
aI3078
aI3128
aI3159
aI3149
aI3117
aI3097
aI3102
aI3087
aI3111
aI3162
aI3109
aI3108
aI3084
aI3109
aI3112
aI3093
aI3086
aI3093
aI3155
aI3153
aI3125
aI3087
aI3075
aI3074
aI3080
aI3091
aI3075
aI3083
aI3061
aI3072
aI3126
aI3138
aI3135
aI3128
aI3096
aI3070
aI3066
aI3053
aI3051
aI3055
aI3079
aI3095
aI3086
aI3055
aI3051
aI3020
aI3031
aI3050
aI3067
aI3049
aI3008
aI3020
aI3078
aI3089
aI3137
aI3126
aI3080
aI3054
aI3074
aI3094
aI3125
aI3106
aI3077
aI3046
aI3045
aI3047
aI3112
aI3146
aI3128
aI3112
aI3095
aI3083
aI3089
aI3119
aI3130
aI3132
aI3117
aI3080
aI3052
aI3060
aI3086
aI3110
aI3127
aI3093
aI3118
aI3109
aI3088
aI3078
aI3089
aI3112
aI3139
aI3161
aI3170
aI3180
aI3233
aI3247
aI3243
aI3236
aI3192
aI3207
aI3140
aI3111
aI3116
aI3135
aI3154
aI3160
aI3184
aI3172
aI3146
aI3095
aI3045
aI3072
aI3056
aI3087
aI3052
aI3051
aI3052
aI3063
aI3063
aI3106
aI3135
aI3115
aI3128
aI3168
aI3150
aI3172
aI3191
aI3199
aI3165
aI3161
aI3118
aI3089
aI3045
aI3045
aI3049
aI3082
aI3087
aI3105
aI3128
aI3102
aI3097
aI3066
aI3086
aI3101
aI3107
aI3112
aI3150
aI3199
aI3219
aI3182
aI3159
aI3128
aI3139
aI3142
aI3136
aI3105
aI3132
aI3168
aI3166
aI3158
aI3149
aI3141
aI3131
aI3118
aI3128
aI3089
aI3025
aI2990
aI2974
aI3023
aI3031
aI3024
aI2997
aI2999
aI3022
aI3092
aI3123
aI3134
aI3119
aI3083
aI3052
aI3041
aI3093
aI3070
aI3057
aI3048
aI3053
aI3085
aI3085
aI3068
aI3061
aI3068
aI3059
aI3053
aI3111
aI3125
aI3120
aI3132
aI3151
aI3162
aI3187
aI3231
aI3230
aI3244
aI3236
aI3215
aI3170
aI3150
aI3119
aI3116
aI3136
aI3114
aI3112
aI3079
aI3120
aI3137
aI3154
aI3143
aI3113
aI3118
aI3129
aI3134
aI3145
aI3158
aI3179
aI3123
aI3134
aI3169
aI3154
aI3185
aI3157
aI3121
aI3085
aI3092
aI3105
aI3112
aI3112
aI3139
aI3156
aI3180
aI3215
aI3208
aI3159
aI3142
aI3141
aI3158
aI3140
aI3137
aI3156
aI3144
aI3136
aI3107
aI3112
aI3143
aI3142
aI3128
aI3078
aI3070
aI3081
aI3067
aI3067
aI3119
aI3183
aI3187
aI3199
aI3226
aI3254
aI3261
aI3270
aI3267
aI3258
aI3229
aI3219
aI3190
aI3203
aI3160
aI3152
aI3108
aI3110
aI3164
aI3133
aI3130
aI3113
aI3110
aI3127
aI3078
aI3132
aI3171
aI3155
aI3129
aI3160
aI3152
aI3173
aI3184
aI3194
aI3233
aI3227
aI3169
aI3106
aI3107
aI3132
aI3120
aI3142
aI3152
aI3122
aI3096
aI3105
aI3108
aI3125
aI3134
aI3140
aI3190
aI3203
aI3183
aI3178
aI3188
aI3184
aI3138
aI3104
aI3134
aI3084
aI3023
aI3032
aI3077
aI3067
aI3050
aI3029
aI3026
aI3116
aI3156
aI3141
aI3159
aI3162
aI3160
aI3125
aI3127
aI3194
aI3181
aI3142
aI3160
aI3140
aI3154
aI3130
aI3143
aI3169
aI3162
aI3156
aI3132
aI3124
aI3147
aI3180
aI3218
aI3193
aI3176
aI3158
aI3125
aI3173
aI3141
aI3158
aI3156
aI3137
aI3120
aI3111
aI3127
aI3143
aI3130
aI3144
aI3139
aI3145
aI3081
aI3071
aI3109
aI3118
aI3125
aI3084
aI3060
aI3086
aI3084
aI3113
aI3132
aI3157
aI3129
aI3123
aI3132
aI3158
aI3163
aI3194
aI3166
aI3173
aI3192
aI3161
aI3163
aI3141
aI3136
aI3120
aI3112
aI3142
aI3128
aI3154
aI3152
aI3134
aI3128
aI3129
aI3096
aI3095
aI3084
aI3127
aI3121
aI3131
aI3091
aI3099
aI3088
aI3123
aI3123
aI3159
aI3135
aI3141
aI3169
aI3193
aI3221
aI3202
aI3179
aI3138
aI3143
aI3114
aI3119
aI3174
aI3132
aI3124
aI3129
aI3154
aI3133
aI3154
aI3143
aI3140
aI3126
aI3125
aI3126
aI3088
aI3072
aI3067
aI3039
aI3073
aI3101
aI3134
aI3144
aI3175
aI3207
aI3236
aI3239
aI3229
aI3194
aI3162
aI3142
aI3130
aI3141
aI3127
aI3139
aI3127
aI3135
aI3100
aI3074
aI3077
aI3110
aI3118
aI3101
aI3118
aI3150
aI3137
aI3169
aI3200
aI3200
aI3211
aI3144
aI3117
aI3128
aI3145
aI3127
aI3121
aI3121
a.