(lp0
I0
aI0
aI270
aI928
aI1812
aI2550
aI3152
aI3570
aI3847
aI3969
aI4037
aI4099
aI4061
aI4009
aI3959
aI3935
aI3827
aI3773
aI3715
aI3618
aI3534
aI3465
aI3470
aI3427
aI3355
aI3311
aI3273
aI3292
aI3297
aI3267
aI3241
aI3208
aI3184
aI3202
aI3200
aI3204
aI3145
aI3178
aI3169
aI3171
aI3136
aI3094
aI3101
aI3152
aI3151
aI3186
aI3200
aI3183
aI3172
aI3177
aI3180
aI3172
aI3160
aI3201
aI3209
aI3218
aI3205
aI3186
aI3204
aI3157
aI3143
aI3114
aI3136
aI3141
aI3179
aI3184
aI3215
aI3225
aI3241
aI3274
aI3252
aI3234
aI3247
aI3238
aI3227
aI3200
aI3175
aI3155
aI3173
aI3158
aI3182
aI3206
aI3230
aI3222
aI3207
aI3239
aI3218
aI3212
aI3203
aI3230
aI3244
aI3241
aI3234
aI3250
aI3263
aI3239
aI3239
aI3232
aI3174
aI3179
aI3215
aI3242
aI3229
aI3216
aI3172
aI3177
aI3172
aI3191
aI3172
aI3167
aI3193
aI3167
aI3182
aI3223
aI3209
aI3224
aI3230
aI3220
aI3247
aI3260
aI3238
aI3218
aI3234
aI3221
aI3209
aI3190
aI3192
aI3189
aI3236
aI3263
aI3235
aI3209
aI3248
aI3210
aI3238
aI3210
aI3241
aI3216
aI3213
aI3209
aI3226
aI3223
aI3215
aI3242
aI3229
aI3242
aI3239
aI3269
aI3283
aI3274
aI3264
aI3262
aI3239
aI3179
aI3210
aI3209
aI3172
aI3235
aI3236
aI3227
aI3247
aI3248
aI3269
aI3248
aI3270
aI3285
aI3249
aI3204
aI3204
aI3221
aI3210
aI3205
aI3205
aI3232
aI3230
aI3217
aI3192
aI3177
aI3183
aI3216
aI3227
aI3222
aI3277
aI3260
aI3321
aI3301
aI3271
aI3260
aI3273
aI3243
aI3244
aI3237
aI3193
aI3206
aI3220
aI3218
aI3210
aI3219
aI3237
aI3245
aI3184
aI3119
aI3160
aI3181
aI3175
aI3178
aI3170
aI3239
aI3253
aI3218
aI3235
aI3239
aI3265
aI3314
aI3323
aI3307
aI3317
aI3304
aI3274
aI3242
aI3255
aI3257
aI3268
aI3288
aI3304
aI3278
aI3271
aI3213
aI3206
aI3182
aI3219
aI3198
aI3257
aI3224
aI3255
aI3259
aI3225
aI3233
aI3232
aI3207
aI3229
aI3232
aI3226
aI3246
aI3246
aI3243
aI3278
aI3294
aI3312
aI3272
aI3270
aI3236
aI3226
aI3260
aI3254
aI3257
aI3229
aI3202
aI3159
aI3139
aI3114
aI3073
aI3079
aI3086
aI3085
aI3082
aI3158
aI3142
aI3150
aI3158
aI3131
aI3183
aI3191
aI3192
aI3217
aI3201
aI3179
aI3218
aI3249
aI3212
aI3250
aI3268
aI3272
aI3216
aI3258
aI3262
aI3286
aI3308
aI3277
aI3238
aI3211
aI3226
aI3266
aI3218
aI3219
aI3221
aI3227
aI3171
aI3167
aI3149
aI3152
aI3114
aI3110
aI3113
aI3096
aI3142
aI3146
aI3130
aI3149
aI3145
aI3140
aI3146
aI3156
aI3190
aI3197
aI3203
aI3222
aI3192
aI3167
aI3172
aI3158
aI3143
aI3187
aI3180
aI3188
aI3184
aI3118
aI3163
aI3167
aI3171
aI3187
aI3138
aI3128
aI3132
aI3110
aI3118
aI3161
aI3201
aI3191
aI3184
aI3215
aI3210
aI3270
aI3286
aI3270
aI3269
aI3243
aI3262
aI3265
aI3246
aI3206
aI3163
aI3191
aI3220
aI3201
aI3202
aI3196
aI3144
aI3136
aI3160
aI3183
aI3182
aI3185
aI3146
aI3122
aI3158
aI3220
aI3252
aI3258
aI3258
aI3264
aI3245
aI3212
aI3225
aI3207
aI3216
aI3220
aI3235
aI3191
aI3162
aI3128
aI3164
aI3166
aI3162
aI3110
aI3066
aI3075
aI3102
aI3123
aI3158
aI3171
aI3157
aI3155
aI3163
aI3186
aI3206
aI3205
aI3225
aI3207
aI3250
aI3257
aI3215
aI3228
aI3249
aI3244
aI3233
aI3227
aI3159
aI3179
aI3239
aI3206
aI3219
aI3184
aI3151
aI3161
aI3168
aI3177
aI3147
aI3183
aI3201
aI3149
aI3181
aI3163
aI3138
aI3166
aI3195
aI3192
aI3217
aI3201
aI3205
aI3215
aI3254
aI3246
aI3207
aI3152
aI3182
aI3162
aI3157
aI3170
aI3150
aI3174
aI3158
aI3123
aI3155
aI3165
aI3131
aI3150
aI3162
aI3144
aI3193
aI3167
aI3174
aI3192
aI3176
aI3136
aI3134
aI3165
aI3189
aI3184
aI3208
aI3206
aI3193
aI3189
aI3219
aI3181
aI3223
aI3212
aI3225
aI3224
aI3219
aI3223
aI3202
aI3170
aI3187
aI3194
aI3182
aI3169
aI3211
aI3202
aI3171
aI3179
aI3224
aI3235
aI3186
aI3200
aI3216
aI3230
aI3264
aI3227
aI3228
aI3230
aI3240
aI3196
aI3244
aI3251
aI3251
aI3261
aI3230
aI3182
aI3133
aI3135
aI3153
aI3140
aI3161
aI3168
aI3126
aI3145
aI3163
aI3172
aI3202
aI3179
aI3190
aI3168
aI3132
aI3133
aI3136
aI3148
aI3191
aI3225
aI3214
aI3208
aI3164
aI3115
aI3129
aI3147
aI3138
aI3160
aI3175
aI3151
aI3167
aI3155
aI3144
aI3180
aI3193
aI3217
aI3248
aI3248
aI3249
aI3220
aI3194
aI3191
aI3210
aI3213
aI3178
aI3149
aI3174
aI3144
aI3174
aI3139
aI3158
aI3149
aI3172
aI3172
aI3135
aI3183
aI3200
aI3207
aI3204
aI3186
aI3174
aI3172
aI3166
aI3152
aI3205
aI3233
aI3213
aI3224
aI3233
aI3223
aI3255
aI3260
aI3284
aI3240
aI3266
aI3270
aI3247
aI3252
aI3240
aI3247
aI3244
aI3251
aI3247
aI3205
aI3224
aI3163
aI3192
aI3237
aI3233
aI3228
aI3265
aI3252
aI3274
aI3256
aI3274
aI3255
aI3222
aI3204
aI3201
aI3171
aI3141
aI3134
aI3169
aI3184
aI3174
aI3174
aI3148
aI3161
aI3200
aI3208
aI3258
aI3272
aI3300
aI3311
aI3326
aI3314
aI3303
aI3331
aI3332
aI3294
aI3274
aI3274
aI3265
aI3233
aI3208
aI3207
aI3215
aI3234
aI3244
aI3299
aI3240
aI3261
aI3287
aI3233
aI3203
aI3146
aI3115
aI3124
aI3126
aI3154
aI3147
aI3127
aI3110
aI3121
aI3168
aI3208
aI3207
aI3203
aI3211
aI3212
aI3203
aI3203
aI3179
aI3216
aI3223
aI3207
aI3177
aI3210
aI3195
aI3210
aI3230
aI3244
aI3229
aI3214
aI3208
aI3166
aI3215
aI3199
aI3196
aI3203
aI3214
aI3161
aI3180
aI3182
aI3207
aI3211
aI3200
aI3197
aI3172
aI3205
aI3187
aI3207
aI3183
aI3197
aI3216
aI3194
aI3164
aI3210
aI3227
aI3232
aI3202
aI3199
aI3181
aI3180
aI3149
aI3158
aI3197
aI3174
aI3170
aI3207
aI3201
aI3221
aI3236
aI3224
aI3205
aI3148
aI3149
aI3172
aI3183
aI3201
aI3174
aI3153
aI3128
aI3158
aI3172
aI3202
aI3206
aI3187
aI3149
aI3156
aI3156
aI3174
aI3200
aI3247
aI3230
aI3267
aI3240
aI3199
aI3181
aI3159
aI3174
aI3189
aI3196
aI3199
aI3199
aI3239
aI3240
aI3232
aI3222
aI3189
aI3167
aI3179
aI3225
aI3259
aI3279
aI3237
aI3234
aI3211
aI3234
aI3231
aI3206
aI3200
aI3205
aI3242
aI3235
aI3215
aI3154
aI3162
aI3211
aI3221
aI3180
aI3192
aI3176
aI3153
aI3152
aI3187
aI3214
aI3173
aI3206
aI3233
aI3244
aI3281
aI3293
aI3284
aI3291
aI3302
aI3307
aI3274
aI3299
aI3283
aI3261
aI3230
aI3229
aI3193
aI3185
aI3230
aI3208
aI3201
aI3200
aI3197
aI3192
aI3188
aI3170
aI3144
aI3204
aI3225
aI3168
aI3132
aI3166
aI3197
aI3210
aI3216
aI3228
aI3236
aI3211
aI3213
aI3245
aI3281
aI3268
aI3236
aI3246
aI3258
aI3248
aI3274
aI3266
aI3231
aI3218
aI3208
aI3227
aI3197
aI3151
aI3154
aI3171
aI3175
aI3188
aI3182
aI3160
aI3154
aI3170
aI3182
aI3167
aI3160
aI3155
aI3126
aI3125
aI3146
aI3137
aI3179
aI3172
aI3193
aI3183
aI3198
aI3213
aI3237
aI3225
aI3232
aI3209
aI3219
aI3205
aI3217
aI3197
aI3193
aI3184
aI3210
aI3211
aI3183
aI3177
aI3175
aI3198
aI3169
aI3175
aI3197
aI3188
aI3208
aI3223
aI3220
aI3220
aI3189
aI3219
aI3210
aI3220
aI3195
aI3214
aI3264
aI3254
aI3280
aI3275
aI3246
aI3259
aI3244
aI3250
aI3233
aI3242
aI3221
aI3196
aI3192
aI3183
aI3155
aI3167
aI3225
aI3253
aI3248
aI3282
aI3257
aI3244
aI3240
aI3243
aI3207
aI3181
aI3186
aI3189
aI3169
aI3193
aI3201
aI3200
aI3190
aI3202
aI3201
aI3180
aI3194
aI3248
aI3252
aI3255
aI3226
aI3230
aI3194
aI3169
aI3171
aI3155
aI3158
aI3128
aI3189
aI3171
aI3170
aI3188
aI3204
aI3220
aI3180
aI3185
aI3193
aI3235
aI3211
aI3247
aI3219
aI3243
aI3241
aI3251
aI3224
aI3209
aI3189
aI3206
aI3218
aI3241
aI3223
aI3187
aI3225
aI3199
aI3172
aI3208
aI3200
aI3209
aI3151
aI3140
aI3130
aI3184
aI3207
aI3189
aI3158
aI3163
aI3167
aI3175
aI3127
aI3151
aI3164
aI3161
aI3158
aI3157
aI3160
aI3175
aI3139
aI3139
aI3165
aI3159
aI3184
aI3177
aI3176
aI3151
aI3193
aI3219
aI3201
aI3194
aI3174
aI3202
aI3200
aI3205
aI3182
aI3255
aI3218
aI3167
aI3160
aI3165
aI3177
aI3161
aI3141
aI3167
aI3194
aI3173
aI3182
aI3186
aI3152
aI3161
aI3165
aI3155
aI3207
aI3210
aI3249
aI3269
aI3231
aI3217
aI3231
aI3238
aI3214
aI3229
aI3221
aI3208
aI3197
aI3160
aI3177
aI3160
aI3150
aI3170
aI3174
aI3179
aI3174
aI3177
aI3181
aI3157
aI3170
aI3200
aI3206
aI3161
aI3164
aI3203
aI3212
aI3236
aI3253
aI3258
aI3254
aI3238
aI3221
aI3244
aI3234
aI3225
aI3212
aI3188
aI3172
aI3157
aI3213
aI3177
aI3144
aI3126
aI3143
aI3128
aI3154
aI3172
aI3231
aI3253
aI3213
aI3197
aI3219
aI3245
aI3251
aI3251
aI3238
aI3225
aI3225
aI3215
aI3227
aI3204
aI3192
aI3180
aI3150
aI3141
aI3130
aI3147
aI3100
aI3114
aI3131
aI3129
aI3106
aI3160
aI3191
aI3199
aI3205
aI3214
aI3173
aI3193
aI3173
aI3120
aI3123
aI3120
aI3134
aI3170
aI3180
aI3190
aI3196
aI3198
aI3228
aI3226
aI3207
aI3167
aI3183
aI3180
aI3196
aI3184
aI3173
aI3176
aI3183
aI3134
aI3123
aI3111
aI3093
aI3074
aI3083
aI3110
aI3147
aI3123
aI3139
aI3185
aI3225
aI3256
aI3232
aI3232
aI3205
aI3230
aI3256
aI3247
aI3234
aI3184
aI3150
aI3128
aI3159
aI3174
aI3155
aI3179
aI3188
aI3187
aI3211
aI3220
aI3222
aI3173
aI3135
aI3137
aI3141
aI3168
aI3168
aI3203
aI3229
aI3234
aI3249
aI3222
aI3219
aI3253
aI3235
aI3229
aI3230
aI3201
aI3194
aI3200
aI3182
aI3174
aI3159
aI3098
aI3106
aI3068
aI3112
aI3144
aI3168
aI3187
aI3205
aI3209
aI3271
aI3251
aI3260
aI3271
aI3299
aI3267
aI3243
aI3206
aI3224
aI3239
aI3291
aI3268
aI3244
aI3270
aI3217
aI3200
aI3239
aI3227
aI3233
aI3222
aI3203
aI3218
aI3199
aI3209
aI3202
aI3200
aI3192
aI3177
aI3220
aI3254
aI3226
aI3236
aI3288
aI3297
aI3282
aI3282
aI3275
aI3212
aI3160
aI3141
aI3133
aI3183
aI3181
aI3158
aI3140
aI3149
aI3156
aI3167
aI3207
aI3225
aI3216
aI3223
aI3238
aI3245
aI3217
aI3180
aI3160
aI3113
aI3118
aI3125
aI3105
aI3124
aI3115
aI3125
aI3138
aI3096
aI3105
aI3147
aI3169
aI3159
aI3152
aI3154
aI3152
aI3145
aI3184
aI3223
aI3267
aI3234
aI3246
aI3241
aI3260
aI3239
aI3238
aI3266
aI3256
aI3246
aI3233
aI3213
aI3225
aI3200
aI3178
aI3187
aI3205
aI3216
aI3248
aI3236
aI3235
aI3251
aI3251
aI3240
aI3189
aI3185
aI3208
aI3211
aI3248
aI3241
aI3247
aI3241
aI3233
aI3264
aI3249
aI3239
aI3291
aI3294
aI3279
aI3320
aI3334
aI3328
aI3280
aI3237
aI3238
aI3205
aI3202
aI3224
aI3214
aI3192
aI3186
aI3195
aI3267
aI3231
aI3197
aI3203
aI3188
aI3219
aI3236
aI3243
aI3229
aI3224
aI3242
aI3182
aI3177
aI3191
aI3204
aI3216
aI3228
aI3250
aI3299
aI3284
aI3260
aI3245
aI3224
aI3212
aI3198
aI3153
aI3124
aI3174
aI3198
aI3236
aI3236
aI3264
aI3220
aI3229
aI3237
aI3170
aI3157
aI3183
aI3178
aI3220
aI3211
aI3209
aI3233
aI3222
aI3261
aI3261
aI3255
aI3257
aI3255
aI3196
aI3224
aI3245
aI3251
aI3201
aI3215
aI3203
aI3210
aI3198
aI3152
aI3107
aI3075
aI3074
aI3101
aI3137
aI3182
aI3218
aI3213
aI3238
aI3220
aI3249
aI3210
aI3241
aI3276
aI3278
aI3331
aI3355
aI3336
aI3289
aI3255
aI3219
aI3196
aI3148
aI3126
aI3120
aI3183
aI3194
aI3253
aI3233
aI3232
aI3243
aI3253
aI3235
aI3236
aI3196
aI3165
aI3193
aI3186
aI3167
aI3144
aI3127
aI3137
aI3121
aI3134
aI3115
aI3131
aI3117
aI3128
aI3161
aI3176
aI3184
aI3206
aI3161
aI3167
aI3192
aI3186
aI3195
aI3137
aI3172
aI3126
aI3136
aI3181
aI3169
aI3142
aI3178
aI3161
aI3157
aI3141
aI3163
aI3221
aI3188
aI3143
aI3153
aI3164
aI3188
aI3229
aI3200
aI3198
aI3214
aI3169
aI3183
aI3214
aI3233
aI3269
aI3247
aI3234
aI3206
aI3204
aI3205
aI3248
aI3252
aI3229
aI3224
aI3202
aI3144
aI3143
aI3140
aI3090
aI3143
aI3131
aI3160
aI3173
aI3167
aI3171
aI3236
aI3226
aI3253
aI3259
aI3230
aI3228
aI3207
aI3226
aI3235
aI3247
aI3229
aI3194
aI3226
aI3251
aI3242
aI3174
aI3160
aI3142
aI3110
aI3077
aI3102
aI3146
aI3128
aI3119
aI3115
aI3135
aI3163
aI3177
aI3174
aI3172
aI3175
aI3191
aI3178
aI3187
aI3140
aI3169
aI3162
aI3147
aI3161
aI3167
aI3137
aI3129
aI3145
aI3103
aI3161
aI3167
aI3169
aI3159
aI3187
aI3186
aI3224
aI3261
aI3226
aI3232
aI3222
aI3241
aI3213
aI3209
aI3201
aI3222
aI3225
aI3243
aI3246
aI3242
aI3210
aI3179
aI3175
aI3164
aI3169
aI3198
aI3212
aI3222
aI3242
aI3235
aI3237
aI3235
aI3276
aI3257
aI3210
aI3194
aI3212
aI3226
aI3213
aI3184
aI3192
aI3160
aI3215
aI3237
aI3272
aI3287
aI3235
aI3206
aI3235
aI3228
aI3179
aI3198
aI3223
aI3178
aI3179
aI3217
aI3219
aI3251
aI3250
aI3250
aI3192
aI3189
aI3183
aI3235
aI3220
aI3196
aI3193
aI3140
aI3160
aI3228
aI3233
aI3247
aI3227
aI3229
aI3224
aI3187
aI3149
aI3164
aI3169
aI3157
aI3138
aI3163
aI3164
aI3208
aI3270
aI3255
aI3249
aI3253
aI3264
aI3251
aI3200
aI3214
aI3222
aI3239
aI3256
aI3238
aI3214
aI3171
aI3156
aI3202
aI3190
aI3175
aI3142
aI3146
aI3156
aI3197
aI3216
aI3254
aI3262
aI3255
aI3236
aI3209
aI3237
aI3213
aI3200
aI3193
aI3173
aI3137
aI3163
aI3170
aI3150
aI3181
aI3125
aI3129
aI3110
aI3131
aI3126
aI3100
aI3149
aI3154
aI3144
aI3158
aI3145
aI3219
aI3236
aI3244
aI3282
aI3313
aI3306
aI3283
aI3258
aI3285
aI3267
aI3261
aI3234
aI3223
aI3235
aI3239
aI3244
aI3271
aI3241
aI3287
aI3270
aI3224
aI3211
aI3186
aI3198
aI3244
aI3266
aI3244
aI3234
aI3203
aI3183
aI3242
aI3272
aI3241
aI3232
aI3230
aI3233
aI3217
aI3224
aI3218
aI3232
aI3224
aI3247
aI3247
aI3244
aI3218
aI3205
aI3216
aI3212
aI3240
aI3198
aI3195
aI3208
aI3204
aI3216
aI3189
aI3200
aI3230
aI3276
aI3297
aI3247
aI3277
aI3255
aI3229
aI3189
aI3178
aI3133
aI3159
aI3171
aI3182
aI3175
aI3242
aI3231
aI3202
aI3259
aI3246
aI3254
aI3224
aI3186
aI3179
aI3156
aI3158
aI3132
aI3151
aI3143
aI3170
aI3186
aI3184
aI3149
aI3169
aI3185
aI3137
aI3153
aI3164
aI3185
aI3142
aI3139
aI3155
aI3114
aI3130
aI3168
aI3148
aI3156
aI3180
aI3187
aI3170
aI3157
aI3114
aI3127
aI3141
aI3124
aI3156
aI3163
aI3157
aI3171
aI3191
aI3192
aI3203
aI3248
aI3263
aI3273
aI3263
aI3265
aI3261
aI3255
aI3228
aI3212
aI3209
aI3171
aI3162
aI3138
aI3143
aI3157
aI3160
aI3152
aI3157
aI3188
aI3178
aI3133
aI3186
aI3207
aI3202
aI3222
aI3214
aI3233
aI3158
aI3146
aI3159
aI3163
aI3193
aI3217
aI3216
aI3209
aI3208
aI3207
aI3179
aI3181
aI3200
aI3216
aI3222
aI3267
aI3281
aI3292
aI3310
aI3280
aI3285
aI3284
aI3293
aI3279
aI3285
aI3223
aI3263
aI3257
aI3261
aI3306
aI3246
aI3231
aI3197
aI3191
aI3217
aI3213
aI3199
aI3229
aI3216
aI3175
aI3149
aI3112
aI3093
aI3121
aI3090
aI3088
aI3075
aI3116
aI3138
aI3076
aI3085
aI3107
aI3089
aI3114
aI3113
aI3116
aI3111
aI3193
aI3197
aI3187
aI3151
aI3183
aI3179
aI3180
aI3208
aI3208
aI3201
aI3194
aI3197
aI3203
aI3207
aI3165
aI3179
aI3179
aI3148
aI3141
aI3171
aI3162
aI3170
aI3189
aI3193
aI3227
aI3293
aI3279
aI3265
aI3265
aI3260
aI3238
aI3229
aI3215
aI3220
aI3242
aI3250
aI3197
aI3207
aI3190
aI3183
aI3210
aI3242
aI3231
aI3216
aI3214
aI3212
aI3200
aI3237
aI3268
aI3251
aI3234
aI3218
aI3236
aI3230
aI3221
aI3241
aI3227
aI3231
aI3229
aI3240
aI3220
aI3210
aI3176
aI3201
aI3223
aI3233
aI3252
aI3233
aI3223
aI3213
aI3170
aI3150
aI3198
aI3178
aI3179
aI3199
aI3222
aI3267
aI3276
aI3250
aI3260
aI3215
aI3216
aI3276
aI3256
aI3247
aI3237
aI3182
aI3176
aI3178
aI3174
aI3148
aI3163
aI3106
aI3097
aI3106
aI3111
aI3150
aI3189
aI3223
aI3249
aI3280
aI3292
aI3236
aI3209
aI3200
aI3192
aI3195
aI3203
aI3219
aI3177
aI3146
aI3157
aI3192
aI3208
aI3243
aI3207
aI3226
aI3204
aI3158
aI3137
aI3206
aI3229
aI3240
aI3222
aI3247
aI3230
aI3257
aI3285
aI3274
aI3283
aI3278
aI3293
aI3327
aI3330
aI3272
aI3279
aI3292
aI3276
aI3278
aI3214
aI3209
aI3185
aI3174
aI3186
aI3138
aI3186
aI3149
aI3208
aI3222
aI3232
aI3182
aI3174
aI3168
aI3157
aI3171
aI3175
aI3146
aI3146
aI3191
aI3127
aI3131
aI3147
aI3168
aI3205
aI3222
aI3197
aI3155
aI3137
aI3104
aI3131
aI3139
aI3136
aI3148
aI3152
aI3180
aI3189
aI3196
aI3179
aI3189
aI3208
aI3259
aI3213
aI3160
aI3147
aI3164
aI3135
aI3133
aI3133
aI3162
aI3151
aI3178
aI3193
aI3161
aI3129
aI3206
aI3184
aI3180
aI3167
aI3175
aI3179
aI3157
aI3158
aI3161
aI3181
aI3151
aI3119
aI3087
aI3093
aI3098
aI3074
aI3125
aI3187
aI3217
aI3202
aI3220
aI3205
aI3237
aI3247
aI3241
aI3269
aI3217
aI3214
aI3223
aI3174
aI3152
aI3186
aI3171
aI3118
aI3146
aI3148
aI3129
aI3115
aI3081
aI3114
aI3118
aI3097
aI3138
aI3173
aI3158
aI3172
aI3185
aI3218
aI3231
aI3281
aI3271
aI3280
aI3275
aI3255
aI3257
aI3204
aI3187
aI3209
aI3223
aI3225
aI3229
aI3234
aI3195
aI3195
aI3199
aI3200
aI3200
aI3209
aI3215
aI3214
aI3162
aI3170
aI3170
aI3128
aI3101
aI3154
aI3141
aI3153
aI3171
aI3180
aI3182
aI3191
aI3216
aI3245
aI3250
aI3247
aI3193
aI3195
aI3228
aI3210
aI3233
aI3237
aI3220
aI3206
aI3198
aI3212
aI3199
aI3242
aI3264
aI3239
aI3225
aI3212
aI3195
aI3152
aI3174
aI3149
aI3193
aI3217
aI3180
aI3166
aI3177
aI3164
aI3169
aI3158
aI3181
aI3176
aI3247
aI3257
aI3274
aI3274
aI3276
aI3272
aI3268
aI3234
aI3224
aI3233
aI3186
aI3154
aI3146
aI3153
aI3165
aI3174
aI3159
aI3136
aI3117
aI3178
aI3189
aI3180
aI3167
aI3187
aI3195
aI3215
aI3206
aI3232
aI3266
aI3291
aI3330
aI3295
aI3265
aI3262
aI3246
aI3230
aI3250
aI3245
aI3229
aI3169
aI3152
aI3186
aI3165
aI3195
aI3221
aI3221
aI3178
aI3192
aI3213
aI3266
aI3260
aI3241
aI3240
aI3195
aI3196
aI3209
aI3245
aI3245
aI3264
aI3293
aI3291
aI3263
aI3249
aI3252
aI3286
aI3309
aI3280
aI3201
aI3180
aI3183
aI3160
aI3174
aI3193
aI3202
aI3207
aI3220
aI3267
aI3268
aI3271
aI3256
aI3253
aI3240
aI3210
aI3202
aI3207
aI3160
aI3167
aI3186
aI3225
aI3274
aI3239
aI3254
aI3215
aI3241
aI3250
aI3242
aI3241
aI3206
aI3171
aI3172
aI3138
aI3098
aI3128
aI3104
aI3157
aI3167
aI3208
aI3207
aI3205
aI3218
aI3211
aI3186
aI3173
aI3167
aI3187
aI3175
aI3181
aI3234
aI3211
aI3218
aI3233
aI3243
aI3211
aI3198
aI3209
aI3237
aI3257
aI3242
aI3230
aI3239
aI3282
aI3219
aI3235
aI3220
aI3230
aI3233
aI3229
aI3197
aI3250
aI3286
aI3286
aI3248
aI3281
aI3259
aI3210
aI3219
aI3219
aI3237
aI3247
aI3277
aI3249
aI3290
aI3243
aI3272
aI3301
aI3279
aI3229
aI3224
aI3208
aI3182
aI3162
aI3119
aI3104
aI3112
aI3140
aI3146
aI3159
aI3149
aI3146
aI3127
aI3135
aI3130
aI3132
aI3152
aI3197
aI3236
aI3232
aI3210
aI3188
aI3197
aI3198
aI3202
aI3157
aI3155
aI3154
aI3126
aI3138
aI3113
aI3131
aI3163
aI3165
aI3164
aI3198
aI3194
aI3236
aI3234
aI3238
aI3241
aI3212
aI3185
aI3201
aI3216
aI3203
aI3189
aI3210
aI3219
aI3211
aI3206
aI3184
aI3200
aI3203
aI3212
aI3174
aI3179
aI3171
aI3155
aI3162
aI3199
aI3201
aI3187
aI3178
aI3173
aI3137
aI3131
aI3125
aI3171
aI3174
aI3187
aI3211
aI3250
aI3243
aI3239
aI3224
aI3206
aI3218
aI3253
aI3246
aI3242
aI3205
aI3200
aI3247
aI3248
aI3258
aI3255
aI3247
aI3224
aI3235
aI3223
aI3223
aI3195
aI3157
aI3158
aI3148
aI3168
aI3197
aI3188
aI3220
aI3226
aI3231
aI3212
aI3196
aI3220
aI3181
aI3204
aI3209
aI3242
aI3244
aI3262
aI3291
aI3275
aI3306
aI3272
aI3284
aI3254
aI3251
aI3256
aI3278
aI3208
aI3193
aI3150
aI3127
aI3140
aI3162
aI3194
aI3155
aI3125
aI3137
aI3148
aI3173
aI3151
aI3147
aI3188
aI3209
aI3221
aI3231
aI3182
aI3212
aI3162
aI3177
aI3183
aI3165
aI3184
aI3227
aI3226
aI3244
aI3236
aI3247
aI3253
aI3212
aI3210
aI3222
aI3201
aI3214
aI3224
aI3227
aI3260
aI3285
aI3254
aI3248
aI3243
aI3304
aI3313
aI3278
aI3279
aI3306
aI3289
aI3270
aI3300
aI3294
aI3287
aI3294
aI3327
aI3313
aI3310
aI3318
aI3280
aI3245
aI3199
aI3188
aI3155
aI3150
aI3160
aI3194
aI3186
aI3156
aI3152
aI3141
aI3162
aI3195
aI3198
aI3221
aI3246
aI3281
aI3285
aI3256
aI3224
aI3199
aI3162
aI3183
aI3208
aI3201
aI3215
aI3224
aI3195
aI3201
aI3158
aI3189
aI3205
aI3195
aI3157
aI3118
aI3088
aI3061
aI3091
aI3118
aI3141
aI3127
aI3087
aI3135
aI3110
aI3112
aI3097
aI3079
aI3093
aI3106
aI3147
aI3147
aI3182
aI3181
aI3175
aI3187
aI3182
aI3154
aI3174
aI3157
aI3129
aI3126
aI3145
aI3179
aI3201
aI3206
aI3202
aI3192
aI3189
aI3233
aI3231
aI3208
aI3203
aI3193
aI3193
aI3197
aI3184
aI3151
aI3170
aI3158
aI3192
aI3159
aI3132
aI3162
aI3185
aI3147
aI3126
aI3167
aI3218
aI3201
aI3207
aI3159
aI3152
aI3182
aI3221
aI3233
aI3239
aI3221
aI3250
aI3291
aI3271
aI3265
aI3271
aI3234
aI3237
aI3197
aI3195
aI3231
aI3243
aI3282
aI3242
aI3221
aI3227
aI3205
aI3220
aI3196
aI3155
aI3172
aI3177
aI3163
aI3195
aI3192
aI3225
aI3226
aI3224
aI3187
aI3193
aI3194
aI3162
aI3147
aI3136
aI3115
aI3162
aI3187
aI3207
aI3199
aI3226
aI3275
aI3272
aI3250
aI3222
aI3224
aI3207
aI3210
aI3226
aI3193
aI3214
aI3220
aI3168
aI3173
aI3207
aI3211
aI3206
aI3224
aI3211
aI3234
aI3249
aI3229
aI3216
aI3213
aI3198
aI3180
aI3175
aI3186
aI3188
aI3166
aI3164
aI3175
aI3167
aI3168
aI3186
aI3144
aI3150
aI3148
aI3187
aI3205
aI3170
aI3178
aI3189
aI3176
aI3175
aI3233
aI3275
aI3265
aI3254
aI3256
aI3238
aI3248
aI3249
aI3264
aI3258
aI3239
aI3217
aI3232
aI3200
aI3187
aI3202
aI3218
aI3241
aI3236
aI3214
aI3193
aI3193
aI3163
aI3129
aI3167
aI3118
aI3135
aI3114
aI3171
aI3161
aI3191
aI3205
aI3226
aI3246
aI3236
aI3255
aI3257
aI3248
aI3255
aI3286
aI3241
aI3243
aI3202
aI3222
aI3198
aI3199
aI3194
aI3220
aI3249
aI3301
aI3292
aI3253
aI3305
aI3333
aI3324
aI3350
aI3324
aI3330
aI3313
aI3323
aI3301
aI3265
aI3260
aI3262
aI3258
aI3286
aI3270
aI3274
aI3271
aI3238
aI3219
aI3237
aI3252
aI3221
aI3197
aI3198
aI3266
aI3273
aI3227
aI3209
aI3196
aI3190
aI3188
aI3197
aI3211
aI3225
aI3193
aI3183
aI3195
aI3193
aI3201
aI3172
aI3198
aI3177
aI3186
aI3139
aI3142
aI3155
aI3183
aI3193
aI3183
aI3149
aI3115
aI3163
aI3222
aI3200
aI3119
aI3135
aI3164
aI3142
aI3150
aI3183
aI3162
aI3156
aI3166
aI3141
aI3116
aI3139
aI3200
aI3203
aI3245
aI3240
aI3265
aI3245
aI3242
aI3245
aI3169
aI3159
aI3188
aI3146
aI3152
aI3147
aI3138
aI3179
aI3212
aI3251
aI3318
aI3349
aI3295
aI3250
aI3260
aI3235
aI3240
aI3228
aI3252
aI3234
aI3216
aI3230
aI3213
aI3232
aI3196
aI3193
aI3210
aI3256
aI3255
aI3218
aI3206
aI3204
aI3191
aI3218
aI3241
aI3253
aI3250
aI3281
aI3240
aI3156
aI3142
aI3131
aI3164
aI3169
aI3231
aI3211
aI3203
aI3171
aI3161
aI3198
aI3228
aI3252
aI3277
aI3275
aI3235
aI3231
aI3253
aI3252
aI3305
aI3307
aI3290
aI3279
aI3219
aI3205
aI3191
aI3236
aI3231
aI3218
aI3201
aI3214
aI3204
aI3203
aI3203
aI3190
aI3175
aI3195
aI3173
aI3206
aI3171
aI3156
aI3184
aI3221
aI3239
aI3249
aI3202
aI3187
aI3180
aI3160
aI3144
aI3151
aI3150
aI3167
aI3172
aI3127
aI3110
aI3120
aI3091
aI3120
aI3097
aI3086
aI3165
aI3172
aI3180
aI3163
aI3173
aI3180
aI3171
aI3187
aI3186
aI3197
aI3199
aI3182
aI3159
aI3201
aI3193
aI3230
aI3264
aI3240
aI3242
aI3215
aI3197
aI3221
aI3229
aI3240
aI3272
aI3241
aI3193
aI3147
aI3172
aI3155
aI3180
aI3171
aI3228
aI3224
aI3211
aI3199
aI3194
aI3185
aI3168
aI3158
aI3170
aI3151
aI3145
aI3149
aI3173
aI3222
aI3208
aI3220
aI3204
aI3238
aI3238
aI3240
aI3237
aI3233
aI3266
aI3256
aI3233
aI3197
aI3242
aI3236
aI3248
aI3235
aI3224
aI3262
aI3269
aI3246
aI3213
aI3214
aI3247
aI3279
aI3240
aI3224
aI3191
aI3193
aI3203
aI3177
aI3144
aI3115
aI3166
aI3158
aI3188
aI3177
aI3198
aI3202
aI3201
aI3187
aI3213
aI3240
aI3212
aI3227
aI3245
aI3302
aI3285
aI3264
aI3258
aI3272
aI3279
aI3297
aI3280
aI3256
aI3234
aI3228
aI3191
aI3209
aI3219
aI3263
aI3263
aI3283
aI3288
aI3276
aI3270
aI3243
aI3296
aI3297
aI3240
aI3242
aI3225
aI3240
aI3262
aI3257
aI3246
aI3274
aI3265
aI3285
aI3293
aI3301
aI3260
aI3234
aI3224
aI3168
aI3128
aI3109
aI3120
aI3102
aI3080
aI3081
aI3135
aI3144
aI3146
aI3155
aI3165
aI3162
aI3171
aI3180
aI3150
aI3154
aI3183
aI3181
aI3157
aI3161
aI3140
aI3158
aI3216
aI3201
aI3218
aI3221
aI3189
aI3185
aI3216
aI3193
aI3245
aI3252
aI3234
aI3238
aI3272
aI3268
aI3291
aI3255
aI3242
aI3207
aI3223
aI3276
aI3238
aI3218
aI3209
aI3176
aI3188
aI3178
aI3217
aI3220
aI3199
aI3206
aI3215
aI3242
aI3249
aI3185
aI3174
aI3179
aI3187
aI3177
aI3206
aI3190
aI3211
aI3231
aI3261
aI3212
aI3187
aI3178
aI3164
aI3137
aI3143
aI3135
aI3147
aI3166
aI3167
aI3188
aI3224
aI3213
aI3237
aI3143
aI3149
aI3148
aI3167
aI3153
aI3172
aI3217
aI3209
aI3216
aI3226
aI3219
aI3208
aI3200
aI3193
aI3177
aI3159
aI3165
aI3169
aI3177
aI3173
aI3155
aI3168
aI3190
aI3199
aI3177
aI3168
aI3147
aI3126
aI3135
aI3171
aI3190
aI3158
aI3195
aI3175
aI3159
aI3153
aI3188
aI3192
aI3160
aI3200
aI3171
aI3174
aI3185
aI3163
aI3154
aI3185
aI3166
aI3133
aI3130
aI3099
aI3125
aI3130
aI3130
aI3134
aI3139
aI3139
aI3108
aI3155
aI3181
aI3193
aI3177
aI3196
aI3201
aI3178
aI3192
aI3181
aI3212
aI3184
aI3180
aI3162
aI3162
aI3177
aI3180
aI3225
aI3162
aI3168
aI3120
aI3151
aI3170
aI3142
aI3132
aI3124
aI3146
aI3127
aI3105
aI3087
aI3117
aI3146
aI3149
aI3151
aI3120
aI3158
aI3184
aI3152
aI3215
aI3216
aI3225
aI3187
aI3174
aI3206
aI3217
aI3191
aI3155
aI3158
aI3181
aI3166
aI3173
aI3209
aI3220
aI3202
aI3195
aI3163
aI3126
aI3123
aI3161
aI3176
aI3191
aI3194
aI3194
aI3220
aI3215
aI3205
aI3181
aI3153
aI3140
aI3137
aI3139
aI3150
aI3164
aI3171
aI3207
aI3202
aI3166
aI3190
aI3197
aI3203
aI3216
aI3210
aI3198
aI3209
aI3223
aI3206
aI3215
aI3210
aI3212
aI3215
aI3209
aI3292
aI3269
aI3241
aI3210
aI3216
aI3223
aI3262
aI3307
aI3304
aI3290
aI3244
aI3204
aI3221
aI3180
aI3114
aI3118
aI3146
aI3122
aI3128
aI3093
aI3104
aI3155
aI3104
aI3136
aI3175
aI3194
aI3158
aI3133
aI3150
aI3213
aI3208
aI3231
aI3268
aI3216
aI3211
aI3189
aI3204
aI3238
aI3234
aI3261
aI3271
aI3260
aI3290
aI3283
aI3258
aI3268
aI3218
aI3213
aI3165
aI3129
aI3128
aI3129
aI3167
aI3227
aI3245
aI3216
aI3216
aI3204
aI3189
aI3229
aI3181
aI3196
aI3152
aI3134
aI3147
aI3156
aI3201
aI3212
aI3186
aI3217
aI3221
aI3236
aI3262
aI3297
aI3309
aI3314
aI3308
aI3297
aI3265
aI3232
aI3240
aI3214
aI3193
aI3196
aI3204
aI3185
aI3170
aI3179
aI3180
aI3159
aI3125
aI3120
aI3139
aI3195
aI3210
aI3234
aI3199
aI3205
aI3150
aI3162
aI3198
aI3216
aI3216
aI3229
aI3199
aI3190
aI3181
aI3207
aI3230
aI3220
aI3248
aI3224
aI3251
aI3262
aI3282
aI3246
aI3195
aI3168
aI3156
aI3132
aI3164
aI3160
aI3198
aI3215
aI3185
aI3181
aI3222
aI3221
aI3239
aI3286
aI3283
aI3274
aI3246
aI3251
aI3311
aI3319
aI3311
aI3302
aI3309
aI3289
aI3247
aI3236
aI3210
aI3211
aI3230
aI3234
aI3209
aI3176
aI3187
aI3178
aI3209
aI3177
aI3220
aI3189
aI3168
aI3147
aI3113
aI3057
aI3032
aI3037
aI3054
aI3059
aI3097
aI3124
aI3158
aI3206
aI3209
aI3268
aI3262
aI3261
aI3284
aI3274
aI3277
aI3234
aI3244
aI3218
aI3217
aI3191
aI3226
aI3240
aI3245
aI3235
aI3210
aI3195
aI3197
aI3187
aI3162
aI3166
aI3139
aI3156
aI3149
aI3154
aI3152
aI3180
aI3179
aI3158
aI3165
aI3128
aI3129
aI3126
aI3140
aI3148
aI3179
aI3146
aI3142
aI3129
aI3173
aI3217
aI3256
aI3247
aI3240
aI3252
aI3266
aI3294
aI3278
aI3256
aI3264
aI3245
aI3241
aI3205
aI3194
aI3257
aI3220
aI3213
aI3198
aI3160
aI3193
aI3168
aI3186
aI3131
aI3144
aI3136
aI3173
aI3187
aI3186
aI3159
aI3146
aI3093
aI3090
aI3120
aI3124
aI3110
aI3105
aI3106
aI3131
aI3139
aI3149
aI3145
aI3143
aI3164
aI3170
aI3144
aI3142
aI3143
aI3128
aI3180
aI3179
aI3200
aI3206
aI3204
aI3216
aI3198
aI3232
aI3220
aI3200
aI3218
aI3227
aI3278
aI3235
aI3244
aI3239
aI3202
aI3210
aI3210
aI3209
aI3229
aI3210
aI3203
aI3153
aI3139
aI3156
aI3160
aI3163
aI3177
aI3189
aI3149
aI3145
aI3169
aI3161
aI3198
aI3200
aI3168
aI3155
aI3156
aI3172
aI3184
aI3183
aI3190
aI3241
aI3238
aI3218
aI3193
aI3194
aI3226
aI3231
aI3241
aI3237
aI3237
aI3267
aI3282
aI3269
aI3245
aI3273
aI3230
aI3175
aI3247
aI3267
aI3266
aI3232
aI3237
aI3263
aI3261
aI3243
aI3246
aI3245
aI3196
aI3187
aI3182
aI3197
aI3163
aI3118
aI3139
aI3154
aI3182
aI3195
aI3231
aI3236
aI3241
aI3236
aI3201
aI3240
aI3282
aI3272
aI3301
aI3324
aI3306
aI3307
aI3294
aI3282
aI3270
aI3246
aI3267
aI3267
aI3241
aI3228
aI3232
aI3218
aI3210
aI3231
aI3244
aI3226
aI3243
aI3243
aI3269
aI3268
aI3272
aI3283
aI3300
aI3315
aI3274
aI3235
aI3256
aI3243
aI3198
aI3196
aI3211
aI3165
aI3151
aI3159
aI3180
aI3176
aI3181
aI3120
aI3159
aI3155
aI3232
aI3269
aI3210
aI3250
aI3208
aI3173
aI3185
aI3157
aI3182
aI3214
aI3241
aI3239
aI3245
aI3245
aI3246
aI3275
aI3237
aI3253
aI3244
aI3181
aI3153
aI3155
aI3158
aI3138
aI3145
aI3143
aI3162
aI3207
aI3255
aI3227
aI3242
aI3213
aI3213
aI3189
aI3171
aI3154
aI3159
aI3207
aI3209
aI3226
aI3237
aI3222
aI3222
aI3251
aI3244
aI3274
aI3310
aI3273
aI3282
aI3249
aI3248
aI3249
aI3223
aI3218
aI3196
aI3156
aI3170
aI3137
aI3180
aI3190
aI3220
aI3202
aI3200
aI3194
aI3225
aI3248
aI3215
aI3185
aI3196
aI3240
aI3238
aI3242
aI3275
aI3287
aI3282
aI3271
aI3255
aI3250
aI3274
aI3261
aI3270
aI3253
aI3301
aI3300
aI3310
aI3289
aI3261
aI3258
aI3264
aI3243
aI3200
aI3187
aI3136
aI3189
aI3237
aI3257
aI3234
aI3219
aI3236
aI3234
aI3209
aI3194
aI3231
aI3249
aI3244
aI3248
aI3247
aI3224
aI3210
aI3238
aI3224
aI3174
aI3178
aI3194
aI3196
aI3202
aI3221
aI3213
aI3215
aI3195
aI3201
aI3203
aI3215
aI3233
aI3208
aI3176
aI3177
aI3153
aI3189
aI3216
aI3160
aI3152
aI3159
aI3152
aI3157
aI3228
aI3206
aI3162
aI3153
aI3142
aI3103
aI3147
aI3125
aI3178
aI3186
aI3188
aI3186
aI3219
aI3195
aI3229
aI3221
aI3249
aI3235
aI3209
aI3219
aI3230
aI3242
aI3207
aI3248
aI3235
aI3266
aI3210
aI3183
aI3157
aI3157
aI3190
aI3196
aI3188
aI3208
aI3210
aI3230
aI3241
aI3294
aI3270
aI3263
aI3228
aI3233
aI3244
aI3210
aI3195
aI3178
aI3211
aI3196
aI3209
aI3201
aI3182
aI3164
aI3110
aI3118
aI3134
aI3161
aI3144
aI3161
aI3148
aI3156
aI3145
aI3147
aI3134
aI3153
aI3170
aI3131
aI3160
aI3160
aI3132
aI3113
aI3164
aI3186
aI3223
aI3239
aI3260
aI3231
aI3197
aI3207
aI3205
aI3187
aI3124
aI3113
aI3129
aI3147
aI3160
aI3195
aI3240
aI3240
aI3201
aI3204
aI3223
aI3186
aI3202
aI3185
aI3194
aI3150
aI3136
aI3138
aI3155
aI3150
aI3159
aI3176
aI3188
aI3189
aI3225
aI3213
aI3244
aI3212
aI3230
aI3217
aI3274
aI3263
aI3281
aI3274
aI3246
aI3241
aI3240
aI3284
aI3281
aI3318
aI3283
aI3294
aI3274
aI3252
aI3205
aI3173
aI3216
aI3182
aI3224
aI3205
aI3172
aI3206
aI3180
aI3177
aI3211
aI3231
aI3238
aI3241
aI3251
aI3249
aI3280
aI3275
aI3307
aI3286
aI3334
aI3357
aI3351
aI3339
aI3282
aI3305
aI3289
aI3300
aI3297
aI3241
aI3252
aI3299
aI3263
aI3272
aI3227
aI3233
aI3277
aI3257
aI3249
aI3247
aI3255
aI3194
aI3156
aI3166
aI3158
aI3176
aI3177
aI3197
aI3169
aI3153
aI3166
aI3158
aI3119
aI3132
aI3174
aI3176
aI3203
aI3198
aI3241
aI3214
aI3217
aI3215
aI3240
aI3229
aI3240
aI3238
aI3212
aI3239
aI3231
aI3235
aI3230
aI3253
aI3296
aI3280
aI3296
aI3270
aI3266
aI3230
aI3205
aI3201
aI3212
aI3162
aI3142
aI3177
aI3170
aI3154
aI3159
aI3136
aI3104
aI3116
aI3141
aI3159
aI3165
aI3185
aI3226
aI3229
aI3270
aI3282
aI3286
aI3303
aI3266
aI3283
aI3284
aI3305
aI3308
aI3298
aI3255
aI3254
a.